(imatplotlib.font_manager
FontManager
p1
(dp2
S'afm_lookup_cache'
p3
(dp4
sS'ttflist'
p5
(lp6
ccopy_reg
_reconstructor
p7
(cmatplotlib.font_manager
FontEntry
p8
c__builtin__
object
p9
NtRp10
(dp11
S'style'
p12
S'normal'
p13
sS'name'
p14
S'STIXSizeThreeSym'
p15
sS'weight'
p16
I700
sS'stretch'
p17
g13
sS'variant'
p18
g13
sS'fname'
p19
S'/opt/epd/lib/python2.7/site-packages/matplotlib/mpl-data/fonts/ttf/STIXSizThreeSymBol.ttf'
p20
sS'size'
p21
S'scalable'
p22
sbag7
(g8
g9
NtRp23
(dp24
g12
g13
sg14
S'STIXSizeOneSym'
p25
sg16
I700
sg17
g13
sg18
g13
sg19
S'/opt/epd/lib/python2.7/site-packages/matplotlib/mpl-data/fonts/ttf/STIXSizOneSymBol.ttf'
p26
sg21
g22
sbag7
(g8
g9
NtRp27
(dp28
g12
g13
sg14
S'Bitstream Vera Sans Mono'
p29
sg16
I700
sg17
g13
sg18
g13
sg19
S'/opt/epd/lib/python2.7/site-packages/matplotlib/mpl-data/fonts/ttf/VeraMoBd.ttf'
p30
sg21
g22
sbag7
(g8
g9
NtRp31
(dp32
g12
S'oblique'
p33
sg14
S'Bitstream Vera Sans Mono'
p34
sg16
I700
sg17
g13
sg18
g13
sg19
S'/opt/epd/lib/python2.7/site-packages/matplotlib/mpl-data/fonts/ttf/VeraMoBI.ttf'
p35
sg21
g22
sbag7
(g8
g9
NtRp36
(dp37
g12
g33
sg14
S'Bitstream Vera Sans'
p38
sg16
I400
sg17
g13
sg18
g13
sg19
S'/opt/epd/lib/python2.7/site-packages/matplotlib/mpl-data/fonts/ttf/VeraIt.ttf'
p39
sg21
g22
sbag7
(g8
g9
NtRp40
(dp41
g12
g13
sg14
S'Bitstream Vera Sans'
p42
sg16
I400
sg17
g13
sg18
g13
sg19
S'/opt/epd/lib/python2.7/site-packages/matplotlib/mpl-data/fonts/ttf/Vera.ttf'
p43
sg21
g22
sbag7
(g8
g9
NtRp44
(dp45
g12
g13
sg14
S'STIXSizeFourSym'
p46
sg16
I400
sg17
g13
sg18
g13
sg19
S'/opt/epd/lib/python2.7/site-packages/matplotlib/mpl-data/fonts/ttf/STIXSizFourSymReg.ttf'
p47
sg21
g22
sbag7
(g8
g9
NtRp48
(dp49
g12
g13
sg14
S'STIXGeneral'
p50
sg16
I400
sg17
g13
sg18
g13
sg19
S'/opt/epd/lib/python2.7/site-packages/matplotlib/mpl-data/fonts/ttf/STIXGeneral.ttf'
p51
sg21
g22
sbag7
(g8
g9
NtRp52
(dp53
g12
g13
sg14
S'cmex10'
p54
sg16
I400
sg17
g13
sg18
g13
sg19
S'/opt/epd/lib/python2.7/site-packages/matplotlib/mpl-data/fonts/ttf/cmex10.ttf'
p55
sg21
g22
sbag7
(g8
g9
NtRp56
(dp57
g12
g13
sg14
S'cmtt10'
p58
sg16
I400
sg17
g13
sg18
g13
sg19
S'/opt/epd/lib/python2.7/site-packages/matplotlib/mpl-data/fonts/ttf/cmtt10.ttf'
p59
sg21
g22
sbag7
(g8
g9
NtRp60
(dp61
g12
S'italic'
p62
sg14
S'STIXGeneral'
p63
sg16
I700
sg17
g13
sg18
g13
sg19
S'/opt/epd/lib/python2.7/site-packages/matplotlib/mpl-data/fonts/ttf/STIXGeneralBolIta.ttf'
p64
sg21
g22
sbag7
(g8
g9
NtRp65
(dp66
g12
g62
sg14
S'STIXGeneral'
p67
sg16
I400
sg17
g13
sg18
g13
sg19
S'/opt/epd/lib/python2.7/site-packages/matplotlib/mpl-data/fonts/ttf/STIXGeneralItalic.ttf'
p68
sg21
g22
sbag7
(g8
g9
NtRp69
(dp70
g12
g13
sg14
S'STIXSizeTwoSym'
p71
sg16
I400
sg17
g13
sg18
g13
sg19
S'/opt/epd/lib/python2.7/site-packages/matplotlib/mpl-data/fonts/ttf/STIXSizTwoSymReg.ttf'
p72
sg21
g22
sbag7
(g8
g9
NtRp73
(dp74
g12
g33
sg14
S'Bitstream Vera Sans'
p75
sg16
I700
sg17
g13
sg18
g13
sg19
S'/opt/epd/lib/python2.7/site-packages/matplotlib/mpl-data/fonts/ttf/VeraBI.ttf'
p76
sg21
g22
sbag7
(g8
g9
NtRp77
(dp78
g12
g13
sg14
S'cmmi10'
p79
sg16
I400
sg17
g13
sg18
g13
sg19
S'/opt/epd/lib/python2.7/site-packages/matplotlib/mpl-data/fonts/ttf/cmmi10.ttf'
p80
sg21
g22
sbag7
(g8
g9
NtRp81
(dp82
g12
g13
sg14
S'Bitstream Vera Serif'
p83
sg16
I700
sg17
g13
sg18
g13
sg19
S'/opt/epd/lib/python2.7/site-packages/matplotlib/mpl-data/fonts/ttf/VeraSeBd.ttf'
p84
sg21
g22
sbag7
(g8
g9
NtRp85
(dp86
g12
g13
sg14
S'STIXSizeFiveSym'
p87
sg16
I400
sg17
g13
sg18
g13
sg19
S'/opt/epd/lib/python2.7/site-packages/matplotlib/mpl-data/fonts/ttf/STIXSizFiveSymReg.ttf'
p88
sg21
g22
sbag7
(g8
g9
NtRp89
(dp90
g12
g33
sg14
S'Bitstream Vera Sans Mono'
p91
sg16
I400
sg17
g13
sg18
g13
sg19
S'/opt/epd/lib/python2.7/site-packages/matplotlib/mpl-data/fonts/ttf/VeraMoIt.ttf'
p92
sg21
g22
sbag7
(g8
g9
NtRp93
(dp94
g12
g13
sg14
S'cmb10'
p95
sg16
I400
sg17
g13
sg18
g13
sg19
S'/opt/epd/lib/python2.7/site-packages/matplotlib/mpl-data/fonts/ttf/cmb10.ttf'
p96
sg21
g22
sbag7
(g8
g9
NtRp97
(dp98
g12
g13
sg14
S'cmsy10'
p99
sg16
I400
sg17
g13
sg18
g13
sg19
S'/opt/epd/lib/python2.7/site-packages/matplotlib/mpl-data/fonts/ttf/cmsy10.ttf'
p100
sg21
g22
sbag7
(g8
g9
NtRp101
(dp102
g12
g13
sg14
S'STIXSizeFourSym'
p103
sg16
I700
sg17
g13
sg18
g13
sg19
S'/opt/epd/lib/python2.7/site-packages/matplotlib/mpl-data/fonts/ttf/STIXSizFourSymBol.ttf'
p104
sg21
g22
sbag7
(g8
g9
NtRp105
(dp106
g12
g62
sg14
S'STIXNonUnicode'
p107
sg16
I700
sg17
g13
sg18
g13
sg19
S'/opt/epd/lib/python2.7/site-packages/matplotlib/mpl-data/fonts/ttf/STIXNonUniBolIta.ttf'
p108
sg21
g22
sbag7
(g8
g9
NtRp109
(dp110
g12
g13
sg14
S'cmr10'
p111
sg16
I400
sg17
g13
sg18
g13
sg19
S'/opt/epd/lib/python2.7/site-packages/matplotlib/mpl-data/fonts/ttf/cmr10.ttf'
p112
sg21
g22
sbag7
(g8
g9
NtRp113
(dp114
g12
g13
sg14
S'Bitstream Vera Sans Mono'
p115
sg16
I400
sg17
g13
sg18
g13
sg19
S'/opt/epd/lib/python2.7/site-packages/matplotlib/mpl-data/fonts/ttf/VeraMono.ttf'
p116
sg21
g22
sbag7
(g8
g9
NtRp117
(dp118
g12
g13
sg14
S'Bitstream Vera Sans'
p119
sg16
I700
sg17
g13
sg18
g13
sg19
S'/opt/epd/lib/python2.7/site-packages/matplotlib/mpl-data/fonts/ttf/VeraBd.ttf'
p120
sg21
g22
sbag7
(g8
g9
NtRp121
(dp122
g12
g13
sg14
S'STIXSizeThreeSym'
p123
sg16
I400
sg17
g13
sg18
g13
sg19
S'/opt/epd/lib/python2.7/site-packages/matplotlib/mpl-data/fonts/ttf/STIXSizThreeSymReg.ttf'
p124
sg21
g22
sbag7
(g8
g9
NtRp125
(dp126
g12
g13
sg14
S'STIXNonUnicode'
p127
sg16
I400
sg17
g13
sg18
g13
sg19
S'/opt/epd/lib/python2.7/site-packages/matplotlib/mpl-data/fonts/ttf/STIXNonUni.ttf'
p128
sg21
g22
sbag7
(g8
g9
NtRp129
(dp130
g12
g13
sg14
S'Bitstream Vera Serif'
p131
sg16
I400
sg17
g13
sg18
g13
sg19
S'/opt/epd/lib/python2.7/site-packages/matplotlib/mpl-data/fonts/ttf/VeraSe.ttf'
p132
sg21
g22
sbag7
(g8
g9
NtRp133
(dp134
g12
g13
sg14
S'STIXNonUnicode'
p135
sg16
I700
sg17
g13
sg18
g13
sg19
S'/opt/epd/lib/python2.7/site-packages/matplotlib/mpl-data/fonts/ttf/STIXNonUniBol.ttf'
p136
sg21
g22
sbag7
(g8
g9
NtRp137
(dp138
g12
g13
sg14
S'STIXSizeOneSym'
p139
sg16
I400
sg17
g13
sg18
g13
sg19
S'/opt/epd/lib/python2.7/site-packages/matplotlib/mpl-data/fonts/ttf/STIXSizOneSymReg.ttf'
p140
sg21
g22
sbag7
(g8
g9
NtRp141
(dp142
g12
g13
sg14
S'STIXSizeTwoSym'
p143
sg16
I700
sg17
g13
sg18
g13
sg19
S'/opt/epd/lib/python2.7/site-packages/matplotlib/mpl-data/fonts/ttf/STIXSizTwoSymBol.ttf'
p144
sg21
g22
sbag7
(g8
g9
NtRp145
(dp146
g12
g13
sg14
S'cmss10'
p147
sg16
I400
sg17
g13
sg18
g13
sg19
S'/opt/epd/lib/python2.7/site-packages/matplotlib/mpl-data/fonts/ttf/cmss10.ttf'
p148
sg21
g22
sbag7
(g8
g9
NtRp149
(dp150
g12
g62
sg14
S'STIXNonUnicode'
p151
sg16
I400
sg17
g13
sg18
g13
sg19
S'/opt/epd/lib/python2.7/site-packages/matplotlib/mpl-data/fonts/ttf/STIXNonUniIta.ttf'
p152
sg21
g22
sbag7
(g8
g9
NtRp153
(dp154
g12
g13
sg14
S'STIXGeneral'
p155
sg16
I700
sg17
g13
sg18
g13
sg19
S'/opt/epd/lib/python2.7/site-packages/matplotlib/mpl-data/fonts/ttf/STIXGeneralBol.ttf'
p156
sg21
g22
sbag7
(g8
g9
NtRp157
(dp158
g12
g13
sg14
S'MS PGothic'
p159
sg16
I400
sg17
g13
sg18
g13
sg19
S'/Library/Fonts/Microsoft/MS PGothic.ttf'
p160
sg21
g22
sbag7
(g8
g9
NtRp161
(dp162
g12
g62
sg14
S'Trebuchet MS'
p163
sg16
I400
sg17
g13
sg18
g13
sg19
S'/Library/Fonts/Trebuchet MS Italic.ttf'
p164
sg21
g22
sbag7
(g8
g9
NtRp165
(dp166
g12
g13
sg14
S'Hoefler Text'
p167
sg16
I400
sg17
g13
sg18
g13
sg19
S'/Library/Fonts/Hoefler Text Ornaments.ttf'
p168
sg21
g22
sbag7
(g8
g9
NtRp169
(dp170
g12
g62
sg14
S'New Peninim MT'
p171
sg16
I700
sg17
g13
sg18
g13
sg19
S'/Library/Fonts/NewPeninimMTBoldInclined.ttf'
p172
sg21
g22
sbag7
(g8
g9
NtRp173
(dp174
g12
g62
sg14
S'Meiryo'
p175
sg16
I700
sg17
g13
sg18
g13
sg19
S'/Library/Fonts/Microsoft/Meiryo Bold Italic.ttf'
p176
sg21
g22
sbag7
(g8
g9
NtRp177
(dp178
g12
g13
sg14
S'Mshtakan'
p179
sg16
I400
sg17
g13
sg18
g13
sg19
S'/Library/Fonts/MshtakanRegular.ttf'
p180
sg21
g22
sbag7
(g8
g9
NtRp181
(dp182
g12
g13
sg14
S'Hiragino Mincho ProN'
p183
sg16
I700
sg17
g13
sg18
g13
sg19
S'/System/Library/Fonts/\xe3\x83\x92\xe3\x83\xa9\xe3\x82\xad\xe3\x82\x99\xe3\x83\x8e\xe6\x98\x8e\xe6\x9c\x9d ProN W6.otf'
p184
sg21
g22
sbag7
(g8
g9
NtRp185
(dp186
g12
g13
sg14
S'Osaka'
p187
sg16
I400
sg17
g13
sg18
g13
sg19
S'/Library/Fonts/Osaka.ttf'
p188
sg21
g22
sbag7
(g8
g9
NtRp189
(dp190
g12
g62
sg14
S'Candara'
p191
sg16
I400
sg17
g13
sg18
g13
sg19
S'/Library/Fonts/Microsoft/Candara Italic.ttf'
p192
sg21
g22
sbag7
(g8
g9
NtRp193
(dp194
g12
g13
sg14
S'Verdana'
p195
sg16
I700
sg17
g13
sg18
g13
sg19
S'/Library/Fonts/Verdana Bold.ttf'
p196
sg21
g22
sbag7
(g8
g9
NtRp197
(dp198
g12
g13
sg14
S'Luxi Mono'
p199
sg16
I700
sg17
g13
sg18
g13
sg19
S'/usr/X11/lib/X11/fonts/TTF/luximb.ttf'
p200
sg21
g22
sbag7
(g8
g9
NtRp201
(dp202
g12
g13
sg14
S'Apple SD Gothic Neo'
p203
sg16
I200
sg17
g13
sg18
g13
sg19
S'/Library/Fonts/AppleSDGothicNeo-UltraLight.otf'
p204
sg21
g22
sbag7
(g8
g9
NtRp205
(dp206
g12
g13
sg14
S'LiHei Pro'
p207
sg16
I400
sg17
g13
sg18
g13
sg19
S'/Library/Fonts/\xe5\x84\xb7\xe9\xbb\x91 Pro.ttf'
p208
sg21
g22
sbag7
(g8
g9
NtRp209
(dp210
g12
g13
sg14
S'Arial Unicode MS'
p211
sg16
I400
sg17
g13
sg18
g13
sg19
S'/Library/Fonts/Arial Unicode.ttf'
p212
sg21
g22
sbag7
(g8
g9
NtRp213
(dp214
g12
g13
sg14
S'STIXSizeThreeSym'
p215
sg16
I400
sg17
g13
sg18
g13
sg19
S'/Library/Fonts/STIXSizThreeSymReg.otf'
p216
sg21
g22
sbag7
(g8
g9
NtRp217
(dp218
g12
g13
sg14
S'Gill Sans MT'
p219
sg16
I400
sg17
g13
sg18
g13
sg19
S'/Library/Fonts/Microsoft/Gill Sans MT.ttf'
p220
sg21
g22
sbag7
(g8
g9
NtRp221
(dp222
g12
g62
sg14
S'Gill Sans MT'
p223
sg16
I400
sg17
g13
sg18
g13
sg19
S'/Library/Fonts/Microsoft/Gill Sans MT Italic.ttf'
p224
sg21
g22
sbag7
(g8
g9
NtRp225
(dp226
g12
g13
sg14
S'Serto Kharput'
p227
sg16
I400
sg17
g13
sg18
g13
sg19
S'/usr/X11/lib/X11/fonts/OTF/SyrCOMKharput.otf'
p228
sg21
g22
sbag7
(g8
g9
NtRp229
(dp230
g12
g33
sg14
S'Luxi Serif'
p231
sg16
I400
sg17
g13
sg18
g13
sg19
S'/usr/X11R6/lib/X11/fonts/TTF/luxirri.ttf'
p232
sg21
g22
sbag7
(g8
g9
NtRp233
(dp234
g12
g13
sg14
S'Microsoft Himalaya'
p235
sg16
I400
sg17
g13
sg18
g13
sg19
S'/Library/Fonts/Microsoft/himalaya.ttf'
p236
sg21
g22
sbag7
(g8
g9
NtRp237
(dp238
g12
g13
sg14
S'New Peninim MT'
p239
sg16
I400
sg17
g13
sg18
g13
sg19
S'/Library/Fonts/NewPeninimMT.ttf'
p240
sg21
g22
sbag7
(g8
g9
NtRp241
(dp242
g12
g13
sg14
S'Times New Roman'
p243
sg16
I500
sg17
g13
sg18
g13
sg19
S'/Library/Fonts/Times New Roman.ttf'
p244
sg21
g22
sbag7
(g8
g9
NtRp245
(dp246
g12
g13
sg14
S'Apple SD Gothic Neo'
p247
sg16
I800
sg17
g13
sg18
g13
sg19
S'/Library/Fonts/AppleSDGothicNeo-Heavy.otf'
p248
sg21
g22
sbag7
(g8
g9
NtRp249
(dp250
g12
g13
sg14
S'Arial'
p251
sg16
I400
sg17
g13
sg18
g13
sg19
S'/Library/Fonts/Arial.ttf'
p252
sg21
g22
sbag7
(g8
g9
NtRp253
(dp254
g12
g13
sg14
S'Raanana'
p255
sg16
I400
sg17
g13
sg18
g13
sg19
S'/Library/Fonts/Raanana.ttf'
p256
sg21
g22
sbag7
(g8
g9
NtRp257
(dp258
g12
g13
sg14
S'AppleGothic'
p259
sg16
I400
sg17
g13
sg18
g13
sg19
S'/Library/Fonts/AppleGothic.ttf'
p260
sg21
g22
sbag7
(g8
g9
NtRp261
(dp262
g12
g13
sg14
S'Cambria'
p263
sg16
I700
sg17
g13
sg18
g13
sg19
S'/Library/Fonts/Microsoft/Cambria Bold.ttf'
p264
sg21
g22
sbag7
(g8
g9
NtRp265
(dp266
g12
g13
sg14
S'Palatino Linotype'
p267
sg16
I700
sg17
g13
sg18
g13
sg19
S'/Library/Fonts/Microsoft/Palatino Linotype Bold.ttf'
p268
sg21
g22
sbag7
(g8
g9
NtRp269
(dp270
g12
g33
sg14
S'Luxi Serif'
p271
sg16
I700
sg17
g13
sg18
g13
sg19
S'/usr/X11R6/lib/X11/fonts/TTF/luxirbi.ttf'
p272
sg21
g22
sbag7
(g8
g9
NtRp273
(dp274
g12
g13
sg14
S'Gujarati MT'
p275
sg16
I700
sg17
g13
sg18
g13
sg19
S'/Library/Fonts/GujaratiMTBold.ttf'
p276
sg21
g22
sbag7
(g8
g9
NtRp277
(dp278
g12
g62
sg14
S'Meiryo'
p279
sg16
I400
sg17
g13
sg18
g13
sg19
S'/Library/Fonts/Microsoft/Meiryo Italic.ttf'
p280
sg21
g22
sbag7
(g8
g9
NtRp281
(dp282
g12
g13
sg14
S'Arial Narrow'
p283
sg16
I400
sg17
S'condensed'
p284
sg18
g13
sg19
S'/Library/Fonts/Arial Narrow.ttf'
p285
sg21
g22
sbag7
(g8
g9
NtRp286
(dp287
g12
g33
sg14
S'Luxi Mono'
p288
sg16
I700
sg17
g13
sg18
g13
sg19
S'/usr/X11/lib/X11/fonts/TTF/luximbi.ttf'
p289
sg21
g22
sbag7
(g8
g9
NtRp290
(dp291
g12
g13
sg14
S'Apple SD Gothic Neo'
p292
sg16
I700
sg17
g13
sg18
g13
sg19
S'/System/Library/Fonts/AppleSDGothicNeo-Bold.otf'
p293
sg21
g22
sbag7
(g8
g9
NtRp294
(dp295
g12
g13
sg14
S'Tw Cen MT'
p296
sg16
I700
sg17
g13
sg18
g13
sg19
S'/Library/Fonts/Microsoft/Tw Cen MT Bold.ttf'
p297
sg21
g22
sbag7
(g8
g9
NtRp298
(dp299
g12
g33
sg14
S'Mshtakan'
p300
sg16
I400
sg17
g13
sg18
g13
sg19
S'/Library/Fonts/MshtakanOblique.ttf'
p301
sg21
g22
sbag7
(g8
g9
NtRp302
(dp303
g12
g13
sg14
S'Hiragino Kaku Gothic Pro'
p304
sg16
I400
sg17
g13
sg18
g13
sg19
S'/Library/Fonts/\xe3\x83\x92\xe3\x83\xa9\xe3\x82\xad\xe3\x82\x99\xe3\x83\x8e\xe8\xa7\x92\xe3\x82\xb3\xe3\x82\x99 Pro W3.otf'
p305
sg21
g22
sbag7
(g8
g9
NtRp306
(dp307
g12
g62
sg14
S'Times New Roman'
p308
sg16
I500
sg17
g13
sg18
g13
sg19
S'/Library/Fonts/Microsoft/Times New Roman Italic.ttf'
p309
sg21
g22
sbag7
(g8
g9
NtRp310
(dp311
g12
g13
sg14
S'Serto Batnan'
p312
sg16
I700
sg17
g13
sg18
g13
sg19
S'/usr/X11/lib/X11/fonts/OTF/SyrCOMBatnanBold.otf'
p313
sg21
g22
sbag7
(g8
g9
NtRp314
(dp315
g12
g13
sg14
S'AppleMyungjo'
p316
sg16
I400
sg17
g13
sg18
g13
sg19
S'/Library/Fonts/AppleMyungjo.ttf'
p317
sg21
g22
sbag7
(g8
g9
NtRp318
(dp319
g12
g13
sg14
S'Serto Mardin'
p320
sg16
I700
sg17
g13
sg18
g13
sg19
S'/usr/X11/lib/X11/fonts/OTF/SyrCOMMardinBold.otf'
p321
sg21
g22
sbag7
(g8
g9
NtRp322
(dp323
g12
g62
sg14
S'Arial'
p324
sg16
I400
sg17
g13
sg18
g13
sg19
S'/Library/Fonts/Microsoft/Arial Italic.ttf'
p325
sg21
g22
sbag7
(g8
g9
NtRp326
(dp327
g12
g13
sg14
S'Serto Jerusalem Outline'
p328
sg16
I400
sg17
g13
sg18
g13
sg19
S'/usr/X11/lib/X11/fonts/OTF/SyrCOMJerusalemOutline.otf'
p329
sg21
g22
sbag7
(g8
g9
NtRp330
(dp331
g12
g62
sg14
S'Candara'
p332
sg16
I700
sg17
g13
sg18
g13
sg19
S'/Library/Fonts/Microsoft/Candara Bold Italic.ttf'
p333
sg21
g22
sbag7
(g8
g9
NtRp334
(dp335
g12
g13
sg14
S'Verdana'
p336
sg16
I400
sg17
g13
sg18
g13
sg19
S'/Library/Fonts/Verdana.ttf'
p337
sg21
g22
sbag7
(g8
g9
NtRp338
(dp339
g12
g13
sg14
S'Corsiva Hebrew'
p340
sg16
I400
sg17
g13
sg18
g13
sg19
S'/Library/Fonts/Corsiva.ttf'
p341
sg21
g22
sbag7
(g8
g9
NtRp342
(dp343
g12
g13
sg14
S'PMingLiU-ExtB'
p344
sg16
I400
sg17
g13
sg18
g13
sg19
S'/Library/Fonts/Microsoft/PMingLiU-ExtB.ttf'
p345
sg21
g22
sbag7
(g8
g9
NtRp346
(dp347
g12
g33
sg14
S'Luxi Mono'
p348
sg16
I400
sg17
g13
sg18
g13
sg19
S'/usr/X11/lib/X11/fonts/TTF/luximri.ttf'
p349
sg21
g22
sbag7
(g8
g9
NtRp350
(dp351
g12
g62
sg14
S'Calibri'
p352
sg16
I700
sg17
g13
sg18
g13
sg19
S'/Library/Fonts/Microsoft/Calibri Bold Italic.ttf'
p353
sg21
g22
sbag7
(g8
g9
NtRp354
(dp355
g12
g13
sg14
S'STIXIntegralsD'
p356
sg16
I700
sg17
g13
sg18
g13
sg19
S'/Library/Fonts/STIXIntDBol.otf'
p357
sg21
g22
sbag7
(g8
g9
NtRp358
(dp359
g12
g13
sg14
S'Apple LiSung'
p360
sg16
I200
sg17
g13
sg18
g13
sg19
S'/Library/Fonts/Apple LiSung Light.ttf'
p361
sg21
g22
sbag7
(g8
g9
NtRp362
(dp363
g12
g62
sg14
S'Corbel'
p364
sg16
I700
sg17
g13
sg18
g13
sg19
S'/Library/Fonts/Microsoft/Corbel Bold Italic.ttf'
p365
sg21
g22
sbag7
(g8
g9
NtRp366
(dp367
g12
g13
sg14
S'Myanmar Sangam MN'
p368
sg16
I400
sg17
g13
sg18
g13
sg19
S'/Library/Fonts/Myanmar Sangam MN.ttf'
p369
sg21
g22
sbag7
(g8
g9
NtRp370
(dp371
g12
g13
sg14
S'STIXSizeThreeSym'
p372
sg16
I700
sg17
g13
sg18
g13
sg19
S'/Library/Fonts/STIXSizThreeSymBol.otf'
p373
sg21
g22
sbag7
(g8
g9
NtRp374
(dp375
g12
g13
sg14
S'MS Mincho'
p376
sg16
I400
sg17
g13
sg18
g13
sg19
S'/Library/Fonts/Microsoft/MS Mincho.ttf'
p377
sg21
g22
sbag7
(g8
g9
NtRp378
(dp379
g12
g13
sg14
S'Courier New'
p380
sg16
I400
sg17
g13
sg18
g13
sg19
S'/Library/Fonts/Courier New.ttf'
p381
sg21
g22
sbag7
(g8
g9
NtRp382
(dp383
g12
g62
sg14
S'Arial Narrow'
p384
sg16
I700
sg17
g284
sg18
g13
sg19
S'/Library/Fonts/Arial Narrow Bold Italic.ttf'
p385
sg21
g22
sbag7
(g8
g9
NtRp386
(dp387
g12
g13
sg14
S'Serto Jerusalem'
p388
sg16
I400
sg17
g13
sg18
g13
sg19
S'/usr/X11/lib/X11/fonts/OTF/SyrCOMJerusalem.otf'
p389
sg21
g22
sbag7
(g8
g9
NtRp390
(dp391
g12
g13
sg14
S'Zapfino'
p392
sg16
I400
sg17
g13
sg18
g13
sg19
S'/Library/Fonts/Zapfino.ttf'
p393
sg21
g22
sbag7
(g8
g9
NtRp394
(dp395
g12
g13
sg14
S'Arial Narrow'
p396
sg16
I700
sg17
g284
sg18
g13
sg19
S'/Library/Fonts/Arial Narrow Bold.ttf'
p397
sg21
g22
sbag7
(g8
g9
NtRp398
(dp399
g12
g13
sg14
S'Hiragino Kaku Gothic ProN'
p400
sg16
I700
sg17
g13
sg18
g13
sg19
S'/System/Library/Fonts/\xe3\x83\x92\xe3\x83\xa9\xe3\x82\xad\xe3\x82\x99\xe3\x83\x8e\xe8\xa7\x92\xe3\x82\xb3\xe3\x82\x99 ProN W6.otf'
p401
sg21
g22
sbag7
(g8
g9
NtRp402
(dp403
g12
g13
sg14
S'Krungthep'
p404
sg16
I400
sg17
g13
sg18
g13
sg19
S'/Library/Fonts/Krungthep.ttf'
p405
sg21
g22
sbag7
(g8
g9
NtRp406
(dp407
g12
g13
sg14
S'Hiragino Mincho Pro'
p408
sg16
I400
sg17
g13
sg18
g13
sg19
S'/Library/Fonts/\xe3\x83\x92\xe3\x83\xa9\xe3\x82\xad\xe3\x82\x99\xe3\x83\x8e\xe6\x98\x8e\xe6\x9c\x9d Pro W3.otf'
p409
sg21
g22
sbag7
(g8
g9
NtRp410
(dp411
g12
g13
sg14
S'Apple SD Gothic Neo'
p412
sg16
I700
sg17
g13
sg18
g13
sg19
S'/Library/Fonts/AppleSDGothicNeo-ExtraBold.otf'
p413
sg21
g22
sbag7
(g8
g9
NtRp414
(dp415
g12
g13
sg14
S'East Syriac Adiabene'
p416
sg16
I400
sg17
g13
sg18
g13
sg19
S'/usr/X11/lib/X11/fonts/OTF/SyrCOMAdiabene.otf'
p417
sg21
g22
sbag7
(g8
g9
NtRp418
(dp419
g12
g62
sg14
S'Times New Roman'
p420
sg16
I700
sg17
g13
sg18
g13
sg19
S'/Library/Fonts/Microsoft/Times New Roman Bold Italic.ttf'
p421
sg21
g22
sbag7
(g8
g9
NtRp422
(dp423
g12
g13
sg14
S'Mongolian Baiti'
p424
sg16
I400
sg17
g13
sg18
g13
sg19
S'/Library/Fonts/Microsoft/monbaiti.ttf'
p425
sg21
g22
sbag7
(g8
g9
NtRp426
(dp427
g12
g13
sg14
S'Georgia'
p428
sg16
I400
sg17
g13
sg18
g13
sg19
S'/Library/Fonts/Georgia.ttf'
p429
sg21
g22
sbag7
(g8
g9
NtRp430
(dp431
g12
g13
sg14
S'Candara'
p432
sg16
I700
sg17
g13
sg18
g13
sg19
S'/Library/Fonts/Microsoft/Candara Bold.ttf'
p433
sg21
g22
sbag7
(g8
g9
NtRp434
(dp435
g12
g13
sg14
S'STIXIntegralsSm'
p436
sg16
I700
sg17
g13
sg18
g13
sg19
S'/Library/Fonts/STIXIntSmBol.otf'
p437
sg21
g22
sbag7
(g8
g9
NtRp438
(dp439
g12
g13
sg14
S'Gulim'
p440
sg16
I400
sg17
g13
sg18
g13
sg19
S'/Library/Fonts/Microsoft/Gulim.ttf'
p441
sg21
g22
sbag7
(g8
g9
NtRp442
(dp443
g12
g13
sg14
S'Trebuchet MS'
p444
sg16
I700
sg17
g13
sg18
g13
sg19
S'/Library/Fonts/Trebuchet MS Bold.ttf'
p445
sg21
g22
sbag7
(g8
g9
NtRp446
(dp447
g12
g13
sg14
S'Estrangelo TurAbdin'
p448
sg16
I400
sg17
g13
sg18
g13
sg19
S'/usr/X11/lib/X11/fonts/OTF/SyrCOMTurAbdin.otf'
p449
sg21
g22
sbag7
(g8
g9
NtRp450
(dp451
g12
g13
sg14
S'Constantia'
p452
sg16
I700
sg17
g13
sg18
g13
sg19
S'/Library/Fonts/Microsoft/Constantia Bold.ttf'
p453
sg21
g22
sbag7
(g8
g9
NtRp454
(dp455
g12
g13
sg14
S'Meiryo'
p456
sg16
I700
sg17
g13
sg18
g13
sg19
S'/Library/Fonts/Microsoft/Meiryo Bold.ttf'
p457
sg21
g22
sbag7
(g8
g9
NtRp458
(dp459
g12
g13
sg14
S'MingLiU_HKSCS'
p460
sg16
I400
sg17
g13
sg18
g13
sg19
S'/Library/Fonts/Microsoft/mingliu_hkscs.ttf'
p461
sg21
g22
sbag7
(g8
g9
NtRp462
(dp463
g12
g13
sg14
S'Apple Symbols'
p464
sg16
I400
sg17
g13
sg18
g13
sg19
S'/System/Library/Fonts/Apple Symbols.ttf'
p465
sg21
g22
sbag7
(g8
g9
NtRp466
(dp467
g12
g13
sg14
S'Estrangelo Nisibin Outline'
p468
sg16
I400
sg17
g13
sg18
g13
sg19
S'/usr/X11/lib/X11/fonts/OTF/SyrCOMNisibinOutline.otf'
p469
sg21
g22
sbag7
(g8
g9
NtRp470
(dp471
g12
g13
sg14
S'Webdings'
p472
sg16
I400
sg17
g13
sg18
g13
sg19
S'/Library/Fonts/Webdings.ttf'
p473
sg21
g22
sbag7
(g8
g9
NtRp474
(dp475
g12
g62
sg14
S'Arial Narrow'
p476
sg16
I400
sg17
g284
sg18
g13
sg19
S'/Library/Fonts/Arial Narrow Italic.ttf'
p477
sg21
g22
sbag7
(g8
g9
NtRp478
(dp479
g12
g13
sg14
S'East Syriac Ctesiphon'
p480
sg16
I400
sg17
g13
sg18
g13
sg19
S'/usr/X11/lib/X11/fonts/OTF/SyrCOMCtesiphon.otf'
p481
sg21
g22
sbag7
(g8
g9
NtRp482
(dp483
g12
g13
sg14
S'Luxi Mono'
p484
sg16
I400
sg17
g13
sg18
g13
sg19
S'/usr/X11R6/lib/X11/fonts/TTF/luximr.ttf'
p485
sg21
g22
sbag7
(g8
g9
NtRp486
(dp487
g12
g13
sg14
S'Apple SD Gothic Neo'
p488
sg16
I400
sg17
g13
sg18
g13
sg19
S'/System/Library/Fonts/AppleSDGothicNeo-Regular.otf'
p489
sg21
g22
sbag7
(g8
g9
NtRp490
(dp491
g12
g13
sg14
S'Hiragino Mincho ProN'
p492
sg16
I400
sg17
g13
sg18
g13
sg19
S'/System/Library/Fonts/\xe3\x83\x92\xe3\x83\xa9\xe3\x82\xad\xe3\x82\x99\xe3\x83\x8e\xe6\x98\x8e\xe6\x9c\x9d ProN W3.otf'
p493
sg21
g22
sbag7
(g8
g9
NtRp494
(dp495
g12
g13
sg14
S'PilGi'
p496
sg16
I400
sg17
g13
sg18
g13
sg19
S'/Library/Fonts/Pilgiche.ttf'
p497
sg21
g22
sbag7
(g8
g9
NtRp498
(dp499
g12
g13
sg14
S'Estrangelo Midyat'
p500
sg16
I400
sg17
g13
sg18
g13
sg19
S'/usr/X11/lib/X11/fonts/OTF/SyrCOMMidyat.otf'
p501
sg21
g22
sbag7
(g8
g9
NtRp502
(dp503
g12
g13
sg14
S'Apple Braille'
p504
sg16
I400
sg17
g13
sg18
g13
sg19
S'/System/Library/Fonts/Apple Braille Outline 8 Dot.ttf'
p505
sg21
g22
sbag7
(g8
g9
NtRp506
(dp507
g12
g13
sg14
S'Arial'
p508
sg16
I700
sg17
g13
sg18
g13
sg19
S'/Library/Fonts/Microsoft/Arial Bold.ttf'
p509
sg21
g22
sbag7
(g8
g9
NtRp510
(dp511
g12
g13
sg14
S'Bookshelf Symbol 7'
p512
sg16
I400
sg17
g13
sg18
g13
sg19
S'/Library/Fonts/Microsoft/Bookshelf Symbol 7.ttf'
p513
sg21
g22
sbag7
(g8
g9
NtRp514
(dp515
g12
g13
sg14
S'Nadeem'
p516
sg16
I400
sg17
g13
sg18
g13
sg19
S'/Library/Fonts/Nadeem.ttf'
p517
sg21
g22
sbag7
(g8
g9
NtRp518
(dp519
g12
g13
sg14
S'Plantagenet Cherokee'
p520
sg16
I400
sg17
g13
sg18
g13
sg19
S'/Library/Fonts/PlantagenetCherokee.ttf'
p521
sg21
g22
sbag7
(g8
g9
NtRp522
(dp523
g12
g13
sg14
S'Luxi Serif'
p524
sg16
I400
sg17
g13
sg18
g13
sg19
S'/usr/X11R6/lib/X11/fonts/TTF/luxirr.ttf'
p525
sg21
g22
sbag7
(g8
g9
NtRp526
(dp527
g12
g13
sg14
S'Times New Roman'
p528
sg16
I700
sg17
g13
sg18
g13
sg19
S'/Library/Fonts/Times New Roman Bold.ttf'
p529
sg21
g22
sbag7
(g8
g9
NtRp530
(dp531
g12
g13
sg14
S'BiauKai'
p532
sg16
I400
sg17
g13
sg18
g13
sg19
S'/Library/Fonts/BiauKai.ttf'
p533
sg21
g22
sbag7
(g8
g9
NtRp534
(dp535
g12
g13
sg14
S'MS Gothic'
p536
sg16
I400
sg17
g13
sg18
g13
sg19
S'/Library/Fonts/Microsoft/MS Gothic.ttf'
p537
sg21
g22
sbag7
(g8
g9
NtRp538
(dp539
g12
g62
sg14
S'Brush Script MT'
p540
sg16
I400
sg17
g13
sg18
g13
sg19
S'/Library/Fonts/Microsoft/Brush Script.ttf'
p541
sg21
g22
sbag7
(g8
g9
NtRp542
(dp543
g12
g62
sg14
S'Corbel'
p544
sg16
I400
sg17
g13
sg18
g13
sg19
S'/Library/Fonts/Microsoft/Corbel Italic.ttf'
p545
sg21
g22
sbag7
(g8
g9
NtRp546
(dp547
g12
g33
sg14
S'Luxi Sans'
p548
sg16
I700
sg17
g13
sg18
g13
sg19
S'/usr/X11/lib/X11/fonts/TTF/luxisbi.ttf'
p549
sg21
g22
sbag7
(g8
g9
NtRp550
(dp551
g12
g62
sg14
S'Arial'
p552
sg16
I700
sg17
g13
sg18
g13
sg19
S'/Library/Fonts/Arial Bold Italic.ttf'
p553
sg21
g22
sbag7
(g8
g9
NtRp554
(dp555
g12
g13
sg14
S'Goha-Tibeb Zemen'
p556
sg16
I400
sg17
g13
sg18
g13
sg19
S'/usr/X11/lib/X11/fonts/TTF/GohaTibebZemen.ttf'
p557
sg21
g22
sbag7
(g8
g9
NtRp558
(dp559
g12
g62
sg14
S'Tw Cen MT'
p560
sg16
I700
sg17
g13
sg18
g13
sg19
S'/Library/Fonts/Microsoft/Tw Cen MT Bold Italic.ttf'
p561
sg21
g22
sbag7
(g8
g9
NtRp562
(dp563
g12
g62
sg14
S'Franklin Gothic Book'
p564
sg16
I400
sg17
g13
sg18
g13
sg19
S'/Library/Fonts/Microsoft/Franklin Gothic Book Italic.ttf'
p565
sg21
g22
sbag7
(g8
g9
NtRp566
(dp567
g12
g13
sg14
S'STIXVariants'
p568
sg16
I400
sg17
g13
sg18
g13
sg19
S'/Library/Fonts/STIXVar.otf'
p569
sg21
g22
sbag7
(g8
g9
NtRp570
(dp571
g12
g13
sg14
S'STIXVariants'
p572
sg16
I700
sg17
g13
sg18
g13
sg19
S'/Library/Fonts/STIXVarBol.otf'
p573
sg21
g22
sbag7
(g8
g9
NtRp574
(dp575
g12
g13
sg14
S'Serto Malankara'
p576
sg16
I400
sg17
g13
sg18
g13
sg19
S'/usr/X11/lib/X11/fonts/OTF/SyrCOMMalankara.otf'
p577
sg21
g22
sbag7
(g8
g9
NtRp578
(dp579
g12
g13
sg14
S'Hiragino Sans GB'
p580
sg16
I400
sg17
g13
sg18
g13
sg19
S'/Library/Fonts/Hiragino Sans GB W3.otf'
p581
sg21
g22
sbag7
(g8
g9
NtRp582
(dp583
g12
g13
sg14
S'Perpetua'
p584
sg16
I400
sg17
g13
sg18
g13
sg19
S'/Library/Fonts/Microsoft/Perpetua.ttf'
p585
sg21
g22
sbag7
(g8
g9
NtRp586
(dp587
g12
g13
sg14
S'Hiragino Kaku Gothic StdN'
p588
sg16
I700
sg17
g13
sg18
g13
sg19
S'/Library/Fonts/\xe3\x83\x92\xe3\x83\xa9\xe3\x82\xad\xe3\x82\x99\xe3\x83\x8e\xe8\xa7\x92\xe3\x82\xb3\xe3\x82\x99 StdN W8.otf'
p589
sg21
g22
sbag7
(g8
g9
NtRp590
(dp591
g12
g13
sg14
S'Mshtakan'
p592
sg16
I700
sg17
g13
sg18
g13
sg19
S'/Library/Fonts/MshtakanBold.ttf'
p593
sg21
g22
sbag7
(g8
g9
NtRp594
(dp595
g12
g13
sg14
S'Cambria Math'
p596
sg16
I400
sg17
g13
sg18
g13
sg19
S'/Library/Fonts/Microsoft/Cambria Math.ttf'
p597
sg21
g22
sbag7
(g8
g9
NtRp598
(dp599
g12
g13
sg14
S'MS PMincho'
p600
sg16
I400
sg17
g13
sg18
g13
sg19
S'/Library/Fonts/Microsoft/MS PMincho.ttf'
p601
sg21
g22
sbag7
(g8
g9
NtRp602
(dp603
g12
g13
sg14
S'STIXIntegralsUp'
p604
sg16
I700
sg17
g13
sg18
g13
sg19
S'/Library/Fonts/STIXIntUpBol.otf'
p605
sg21
g22
sbag7
(g8
g9
NtRp606
(dp607
g12
g13
sg14
S'MS Reference Sans Serif'
p608
sg16
I400
sg17
g13
sg18
g13
sg19
S'/Library/Fonts/Microsoft/MS Reference Sans Serif.ttf'
p609
sg21
g22
sbag7
(g8
g9
NtRp610
(dp611
g12
g13
sg14
S'Al Bayan'
p612
sg16
I400
sg17
g13
sg18
g13
sg19
S'/Library/Fonts/AlBayan.ttf'
p613
sg21
g22
sbag7
(g8
g9
NtRp614
(dp615
g12
g13
sg14
S'STIXSizeFiveSym'
p616
sg16
I400
sg17
g13
sg18
g13
sg19
S'/Library/Fonts/STIXSizFiveSymReg.otf'
p617
sg21
g22
sbag7
(g8
g9
NtRp618
(dp619
g12
g13
sg14
S'Corsiva Hebrew'
p620
sg16
I700
sg17
g13
sg18
g13
sg19
S'/Library/Fonts/CorsivaBold.ttf'
p621
sg21
g22
sbag7
(g8
g9
NtRp622
(dp623
g12
g13
sg14
S'Corbel'
p624
sg16
I400
sg17
g13
sg18
g13
sg19
S'/Library/Fonts/Microsoft/Corbel.ttf'
p625
sg21
g22
sbag7
(g8
g9
NtRp626
(dp627
g12
g13
sg14
S'Luxi Sans'
p628
sg16
I700
sg17
g13
sg18
g13
sg19
S'/usr/X11/lib/X11/fonts/TTF/luxisb.ttf'
p629
sg21
g22
sbag7
(g8
g9
NtRp630
(dp631
g12
g13
sg14
S'Serto Urhoy'
p632
sg16
I700
sg17
g13
sg18
g13
sg19
S'/usr/X11/lib/X11/fonts/OTF/SyrCOMUrhoyBold.otf'
p633
sg21
g22
sbag7
(g8
g9
NtRp634
(dp635
g12
g13
sg14
S'Gurmukhi MT'
p636
sg16
I400
sg17
g13
sg18
g13
sg19
S'/Library/Fonts/Gurmukhi.ttf'
p637
sg21
g22
sbag7
(g8
g9
NtRp638
(dp639
g12
g13
sg14
S'Serto Jerusalem'
p640
sg16
I700
sg17
g13
sg18
g13
sg19
S'/usr/X11/lib/X11/fonts/OTF/SyrCOMJerusalemBold.otf'
p641
sg21
g22
sbag7
(g8
g9
NtRp642
(dp643
g12
g13
sg14
S'Estrangelo Quenneshrin'
p644
sg16
I400
sg17
g13
sg18
g13
sg19
S'/usr/X11/lib/X11/fonts/OTF/SyrCOMQenNeshrin.otf'
p645
sg21
g22
sbag7
(g8
g9
NtRp646
(dp647
g12
g13
sg14
S'Apple Color Emoji'
p648
sg16
I400
sg17
g13
sg18
g13
sg19
S'/System/Library/Fonts/Apple Color Emoji.ttf'
p649
sg21
g22
sbag7
(g8
g9
NtRp650
(dp651
g12
g13
sg14
S'Skia'
p652
sg16
I400
sg17
g13
sg18
g13
sg19
S'/Library/Fonts/Skia.ttf'
p653
sg21
g22
sbag7
(g8
g9
NtRp654
(dp655
g12
g13
sg14
S'STFangsong'
p656
sg16
I400
sg17
g13
sg18
g13
sg19
S'/Library/Fonts/\xe5\x8d\x8e\xe6\x96\x87\xe4\xbb\xbf\xe5\xae\x8b.ttf'
p657
sg21
g22
sbag7
(g8
g9
NtRp658
(dp659
g12
g13
sg14
S'Lucida Console'
p660
sg16
I400
sg17
g13
sg18
g13
sg19
S'/Library/Fonts/Microsoft/Lucida Console.ttf'
p661
sg21
g22
sbag7
(g8
g9
NtRp662
(dp663
g12
g13
sg14
S'Hiragino Kaku Gothic Std'
p664
sg16
I700
sg17
g13
sg18
g13
sg19
S'/Library/Fonts/\xe3\x83\x92\xe3\x83\xa9\xe3\x82\xad\xe3\x82\x99\xe3\x83\x8e\xe8\xa7\x92\xe3\x82\xb3\xe3\x82\x99 Std W8.otf'
p665
sg21
g22
sbag7
(g8
g9
NtRp666
(dp667
g12
g13
sg14
S'LiSong Pro'
p668
sg16
I400
sg17
g13
sg18
g13
sg19
S'/Library/Fonts/\xe5\x84\xb7\xe5\xae\x8b Pro.ttf'
p669
sg21
g22
sbag7
(g8
g9
NtRp670
(dp671
g12
g13
sg14
S'LastResort'
p672
sg16
I400
sg17
g13
sg18
g13
sg19
S'/System/Library/Fonts/LastResort.ttf'
p673
sg21
g22
sbag7
(g8
g9
NtRp674
(dp675
g12
g13
sg14
S'Hiragino Maru Gothic Pro'
p676
sg16
I400
sg17
g13
sg18
g13
sg19
S'/Library/Fonts/\xe3\x83\x92\xe3\x83\xa9\xe3\x82\xad\xe3\x82\x99\xe3\x83\x8e\xe4\xb8\xb8\xe3\x82\xb3\xe3\x82\x99 Pro W4.otf'
p677
sg21
g22
sbag7
(g8
g9
NtRp678
(dp679
g12
g13
sg14
S'STIXGeneral'
p680
sg16
I700
sg17
g13
sg18
g13
sg19
S'/Library/Fonts/STIXGeneralBol.otf'
p681
sg21
g22
sbag7
(g8
g9
NtRp682
(dp683
g12
g62
sg14
S'STIXNonUnicode'
p684
sg16
I700
sg17
g13
sg18
g13
sg19
S'/Library/Fonts/STIXNonUniBolIta.otf'
p685
sg21
g22
sbag7
(g8
g9
NtRp686
(dp687
g12
g62
sg14
S'Perpetua'
p688
sg16
I700
sg17
g13
sg18
g13
sg19
S'/Library/Fonts/Microsoft/Perpetua Bold Italic.ttf'
p689
sg21
g22
sbag7
(g8
g9
NtRp690
(dp691
g12
g13
sg14
S'Luxi Serif'
p692
sg16
I700
sg17
g13
sg18
g13
sg19
S'/usr/X11R6/lib/X11/fonts/TTF/luxirb.ttf'
p693
sg21
g22
sbag7
(g8
g9
NtRp694
(dp695
g12
g62
sg14
S'Georgia'
p696
sg16
I400
sg17
g13
sg18
g13
sg19
S'/Library/Fonts/Georgia Italic.ttf'
p697
sg21
g22
sbag7
(g8
g9
NtRp698
(dp699
g12
g13
sg14
S'Microsoft Tai Le'
p700
sg16
I700
sg17
g13
sg18
g13
sg19
S'/Library/Fonts/Microsoft/TaiLeb.ttf'
p701
sg21
g22
sbag7
(g8
g9
NtRp702
(dp703
g12
g13
sg14
S'Chalkduster'
p704
sg16
I400
sg17
g13
sg18
g13
sg19
S'/Library/Fonts/Chalkduster.ttf'
p705
sg21
g22
sbag7
(g8
g9
NtRp706
(dp707
g12
g62
sg14
S'Courier New'
p708
sg16
I700
sg17
g13
sg18
g13
sg19
S'/Library/Fonts/Courier New Bold Italic.ttf'
p709
sg21
g22
sbag7
(g8
g9
NtRp710
(dp711
g12
g13
sg14
S'Raanana'
p712
sg16
I700
sg17
g13
sg18
g13
sg19
S'/Library/Fonts/RaananaBold.ttf'
p713
sg21
g22
sbag7
(g8
g9
NtRp714
(dp715
g12
g13
sg14
S'Estrangelo Talada'
p716
sg16
I400
sg17
g13
sg18
g13
sg19
S'/usr/X11/lib/X11/fonts/OTF/SyrCOMTalada.otf'
p717
sg21
g22
sbag7
(g8
g9
NtRp718
(dp719
g12
g62
sg14
S'New Peninim MT'
p720
sg16
I400
sg17
g13
sg18
g13
sg19
S'/Library/Fonts/NewPeninimMTInclined.ttf'
p721
sg21
g22
sbag7
(g8
g9
NtRp722
(dp723
g12
g13
sg14
S'Zapf Dingbats'
p724
sg16
I400
sg17
g13
sg18
g13
sg19
S'/System/Library/Fonts/ZapfDingbats.ttf'
p725
sg21
g22
sbag7
(g8
g9
NtRp726
(dp727
g12
g13
sg14
S'Arial Rounded MT Bold'
p728
sg16
I700
sg17
g13
sg18
g13
sg19
S'/Library/Fonts/Arial Rounded Bold.ttf'
p729
sg21
g22
sbag7
(g8
g9
NtRp730
(dp731
g12
g13
sg14
S'Devanagari MT'
p732
sg16
I700
sg17
g13
sg18
g13
sg19
S'/Library/Fonts/DevanagariMTBold.ttf'
p733
sg21
g22
sbag7
(g8
g9
NtRp734
(dp735
g12
g13
sg14
S'Thonburi'
p736
sg16
I700
sg17
g13
sg18
g13
sg19
S'/System/Library/Fonts/ThonburiBold.ttf'
p737
sg21
g22
sbag7
(g8
g9
NtRp738
(dp739
g12
g13
sg14
S'SimHei'
p740
sg16
I400
sg17
g13
sg18
g13
sg19
S'/Library/Fonts/Microsoft/SimHei.ttf'
p741
sg21
g22
sbag7
(g8
g9
NtRp742
(dp743
g12
g13
sg14
S'Franklin Gothic Medium'
p744
sg16
I500
sg17
g13
sg18
g13
sg19
S'/Library/Fonts/Microsoft/Franklin Gothic Medium.ttf'
p745
sg21
g22
sbag7
(g8
g9
NtRp746
(dp747
g12
g13
sg14
S'PCMyungjo'
p748
sg16
I400
sg17
g13
sg18
g13
sg19
S'/Library/Fonts/PCmyoungjo.ttf'
p749
sg21
g22
sbag7
(g8
g9
NtRp750
(dp751
g12
g13
sg14
S'Calibri'
p752
sg16
I400
sg17
g13
sg18
g13
sg19
S'/Library/Fonts/Microsoft/Calibri.ttf'
p753
sg21
g22
sbag7
(g8
g9
NtRp754
(dp755
g12
g13
sg14
S'Apple SD Gothic Neo'
p756
sg16
I200
sg17
g13
sg18
g13
sg19
S'/Library/Fonts/AppleSDGothicNeo-Light.otf'
p757
sg21
g22
sbag7
(g8
g9
NtRp758
(dp759
g12
g13
sg14
S'MingLiU-ExtB'
p760
sg16
I400
sg17
g13
sg18
g13
sg19
S'/Library/Fonts/Microsoft/MingLiU-ExtB.ttf'
p761
sg21
g22
sbag7
(g8
g9
NtRp762
(dp763
g12
g62
sg14
S'Verdana'
p764
sg16
I700
sg17
g13
sg18
g13
sg19
S'/Library/Fonts/Verdana Bold Italic.ttf'
p765
sg21
g22
sbag7
(g8
g9
NtRp766
(dp767
g12
g62
sg14
S'Franklin Gothic Medium'
p768
sg16
I500
sg17
g13
sg18
g13
sg19
S'/Library/Fonts/Microsoft/Franklin Gothic Medium Italic.ttf'
p769
sg21
g22
sbag7
(g8
g9
NtRp770
(dp771
g12
g13
sg14
S'Yuppy TC'
p772
sg16
I400
sg17
g13
sg18
g13
sg19
S'/Library/Fonts/\xe9\x9b\x85\xe7\x97\x9e-\xe7\xb9\x81.otf'
p773
sg21
g22
sbag7
(g8
g9
NtRp774
(dp775
g12
g13
sg14
S'Hiragino Sans GB'
p776
sg16
I700
sg17
g13
sg18
g13
sg19
S'/Library/Fonts/Hiragino Sans GB W6.otf'
p777
sg21
g22
sbag7
(g8
g9
NtRp778
(dp779
g12
g13
sg14
S'Kailasa'
p780
sg16
I400
sg17
g13
sg18
g13
sg19
S'/Library/Fonts/Kailasa.ttf'
p781
sg21
g22
sbag7
(g8
g9
NtRp782
(dp783
g12
g13
sg14
S'Estrangelo Edessa'
p784
sg16
I400
sg17
g13
sg18
g13
sg19
S'/usr/X11/lib/X11/fonts/OTF/SyrCOMEdessa.otf'
p785
sg21
g22
sbag7
(g8
g9
NtRp786
(dp787
g12
g13
sg14
S'STIXIntegralsSm'
p788
sg16
I400
sg17
g13
sg18
g13
sg19
S'/Library/Fonts/STIXIntSmReg.otf'
p789
sg21
g22
sbag7
(g8
g9
NtRp790
(dp791
g12
g13
sg14
S'Apple SD Gothic Neo'
p792
sg16
I400
sg17
g13
sg18
g13
sg19
S'/Library/Fonts/AppleSDGothicNeo-Thin.otf'
p793
sg21
g22
sbag7
(g8
g9
NtRp794
(dp795
g12
g13
sg14
S'Kokonor'
p796
sg16
I400
sg17
g13
sg18
g13
sg19
S'/Library/Fonts/Kokonor.ttf'
p797
sg21
g22
sbag7
(g8
g9
NtRp798
(dp799
g12
g13
sg14
S'Geeza Pro'
p800
sg16
I700
sg17
g13
sg18
g13
sg19
S'/System/Library/Fonts/Geeza Pro Bold.ttf'
p801
sg21
g22
sbag7
(g8
g9
NtRp802
(dp803
g12
g13
sg14
S'Goha-Tibeb Zemen'
p804
sg16
I400
sg17
g13
sg18
g13
sg19
S'/usr/X11/lib/X11/fonts/OTF/GohaTibebZemen.otf'
p805
sg21
g22
sbag7
(g8
g9
NtRp806
(dp807
g12
g62
sg14
S'Verdana'
p808
sg16
I400
sg17
g13
sg18
g13
sg19
S'/Library/Fonts/Verdana Italic.ttf'
p809
sg21
g22
sbag7
(g8
g9
NtRp810
(dp811
g12
g13
sg14
S'Devanagari MT'
p812
sg16
I400
sg17
g13
sg18
g13
sg19
S'/Library/Fonts/DevanagariMT.ttf'
p813
sg21
g22
sbag7
(g8
g9
NtRp814
(dp815
g12
g13
sg14
S'Apple Braille'
p816
sg16
I400
sg17
g13
sg18
g13
sg19
S'/System/Library/Fonts/Apple Braille.ttf'
p817
sg21
g22
sbag7
(g8
g9
NtRp818
(dp819
g12
g62
sg14
S'Constantia'
p820
sg16
I400
sg17
g13
sg18
g13
sg19
S'/Library/Fonts/Microsoft/Constantia Italic.ttf'
p821
sg21
g22
sbag7
(g8
g9
NtRp822
(dp823
g12
g13
sg14
S'Hiragino Mincho Pro'
p824
sg16
I700
sg17
g13
sg18
g13
sg19
S'/Library/Fonts/\xe3\x83\x92\xe3\x83\xa9\xe3\x82\xad\xe3\x82\x99\xe3\x83\x8e\xe6\x98\x8e\xe6\x9c\x9d Pro W6.otf'
p825
sg21
g22
sbag7
(g8
g9
NtRp826
(dp827
g12
g13
sg14
S'Constantia'
p828
sg16
I400
sg17
g13
sg18
g13
sg19
S'/Library/Fonts/Microsoft/Constantia.ttf'
p829
sg21
g22
sbag7
(g8
g9
NtRp830
(dp831
g12
g62
sg14
S'Constantia'
p832
sg16
I700
sg17
g13
sg18
g13
sg19
S'/Library/Fonts/Microsoft/Constantia Bold Italic.ttf'
p833
sg21
g22
sbag7
(g8
g9
NtRp834
(dp835
g12
g13
sg14
S'InaiMathi'
p836
sg16
I400
sg17
g13
sg18
g13
sg19
S'/Library/Fonts/InaiMathi.ttf'
p837
sg21
g22
sbag7
(g8
g9
NtRp838
(dp839
g12
g13
sg14
S'Estrangelo Antioch'
p840
sg16
I400
sg17
g13
sg18
g13
sg19
S'/usr/X11/lib/X11/fonts/OTF/SyrCOMAntioch.otf'
p841
sg21
g22
sbag7
(g8
g9
NtRp842
(dp843
g12
g13
sg14
S'Cambria'
p844
sg16
I400
sg17
g13
sg18
g13
sg19
S'/Library/Fonts/Microsoft/Cambria.ttf'
p845
sg21
g22
sbag7
(g8
g9
NtRp846
(dp847
g12
g13
sg14
S'Perpetua'
p848
sg16
I700
sg17
g13
sg18
g13
sg19
S'/Library/Fonts/Microsoft/Perpetua Bold.ttf'
p849
sg21
g22
sbag7
(g8
g9
NtRp850
(dp851
g12
g13
sg14
S'STIXNonUnicode'
p852
sg16
I400
sg17
g13
sg18
g13
sg19
S'/Library/Fonts/STIXNonUni.otf'
p853
sg21
g22
sbag7
(g8
g9
NtRp854
(dp855
g12
g13
sg14
S'Batang'
p856
sg16
I400
sg17
g13
sg18
g13
sg19
S'/Library/Fonts/Microsoft/Batang.ttf'
p857
sg21
g22
sbag7
(g8
g9
NtRp858
(dp859
g12
g13
sg14
S'Franklin Gothic Book'
p860
sg16
I400
sg17
g13
sg18
g13
sg19
S'/Library/Fonts/Microsoft/Franklin Gothic Book.ttf'
p861
sg21
g22
sbag7
(g8
g9
NtRp862
(dp863
g12
g13
sg14
S'STIXIntegralsD'
p864
sg16
I400
sg17
g13
sg18
g13
sg19
S'/Library/Fonts/STIXIntDReg.otf'
p865
sg21
g22
sbag7
(g8
g9
NtRp866
(dp867
g12
g62
sg14
S'STIXNonUnicode'
p868
sg16
I400
sg17
g13
sg18
g13
sg19
S'/Library/Fonts/STIXNonUniIta.otf'
p869
sg21
g22
sbag7
(g8
g9
NtRp870
(dp871
g12
g13
sg14
S'Baghdad'
p872
sg16
I400
sg17
g13
sg18
g13
sg19
S'/Library/Fonts/Baghdad.ttf'
p873
sg21
g22
sbag7
(g8
g9
NtRp874
(dp875
g12
g13
sg14
S'STIXIntegralsUp'
p876
sg16
I400
sg17
g13
sg18
g13
sg19
S'/Library/Fonts/STIXIntUpReg.otf'
p877
sg21
g22
sbag7
(g8
g9
NtRp878
(dp879
g12
g13
sg14
S'Comic Sans MS'
p880
sg16
I700
sg17
g13
sg18
g13
sg19
S'/Library/Fonts/Comic Sans MS Bold.ttf'
p881
sg21
g22
sbag7
(g8
g9
NtRp882
(dp883
g12
g13
sg14
S'Trebuchet MS'
p884
sg16
I400
sg17
g13
sg18
g13
sg19
S'/Library/Fonts/Trebuchet MS.ttf'
p885
sg21
g22
sbag7
(g8
g9
NtRp886
(dp887
g12
g13
sg14
S'Estrangelo Nisibin'
p888
sg16
I400
sg17
g13
sg18
g13
sg19
S'/usr/X11/lib/X11/fonts/OTF/SyrCOMNisibin.otf'
p889
sg21
g22
sbag7
(g8
g9
NtRp890
(dp891
g12
g13
sg14
S'Courier New'
p892
sg16
I700
sg17
g13
sg18
g13
sg19
S'/Library/Fonts/Courier New Bold.ttf'
p893
sg21
g22
sbag7
(g8
g9
NtRp894
(dp895
g12
g13
sg14
S'Big Caslon'
p896
sg16
I500
sg17
g13
sg18
g13
sg19
S'/Library/Fonts/BigCaslon.ttf'
p897
sg21
g22
sbag7
(g8
g9
NtRp898
(dp899
g12
g13
sg14
S'Luxi Sans'
p900
sg16
I400
sg17
g13
sg18
g13
sg19
S'/usr/X11/lib/X11/fonts/TTF/luxisr.ttf'
p901
sg21
g22
sbag7
(g8
g9
NtRp902
(dp903
g12
g13
sg14
S'Serto Urhoy'
p904
sg16
I400
sg17
g13
sg18
g13
sg19
S'/usr/X11/lib/X11/fonts/OTF/SyrCOMUrhoy.otf'
p905
sg21
g22
sbag7
(g8
g9
NtRp906
(dp907
g12
g13
sg14
S'Wingdings 2'
p908
sg16
I400
sg17
g13
sg18
g13
sg19
S'/Library/Fonts/Microsoft/Wingdings 2.ttf'
p909
sg21
g22
sbag7
(g8
g9
NtRp910
(dp911
g12
g13
sg14
S'Ayuthaya'
p912
sg16
I400
sg17
g13
sg18
g13
sg19
S'/Library/Fonts/Ayuthaya.ttf'
p913
sg21
g22
sbag7
(g8
g9
NtRp914
(dp915
g12
g13
sg14
S'Tw Cen MT'
p916
sg16
I400
sg17
g13
sg18
g13
sg19
S'/Library/Fonts/Microsoft/Tw Cen MT.ttf'
p917
sg21
g22
sbag7
(g8
g9
NtRp918
(dp919
g12
g13
sg14
S'Apple SD Gothic Neo'
p920
sg16
I700
sg17
g13
sg18
g13
sg19
S'/Library/Fonts/AppleSDGothicNeo-SemiBold.otf'
p921
sg21
g22
sbag7
(g8
g9
NtRp922
(dp923
g12
g13
sg14
S'Herculanum'
p924
sg16
I400
sg17
g13
sg18
g13
sg19
S'/Library/Fonts/Herculanum.ttf'
p925
sg21
g22
sbag7
(g8
g9
NtRp926
(dp927
g12
g13
sg14
S'DecoType Naskh'
p928
sg16
I400
sg17
g13
sg18
g13
sg19
S'/Library/Fonts/DecoTypeNaskh.ttf'
p929
sg21
g22
sbag7
(g8
g9
NtRp930
(dp931
g12
g13
sg14
S'Wingdings'
p932
sg16
I400
sg17
g13
sg18
g13
sg19
S'/Library/Fonts/Microsoft/Wingdings.ttf'
p933
sg21
g22
sbag7
(g8
g9
NtRp934
(dp935
g12
g13
sg14
S'Apple Braille'
p936
sg16
I400
sg17
g13
sg18
g13
sg19
S'/System/Library/Fonts/Apple Braille Pinpoint 6 Dot.ttf'
p937
sg21
g22
sbag7
(g8
g9
NtRp938
(dp939
g12
g13
sg14
S'Hiragino Kaku Gothic Pro'
p940
sg16
I700
sg17
g13
sg18
g13
sg19
S'/Library/Fonts/\xe3\x83\x92\xe3\x83\xa9\xe3\x82\xad\xe3\x82\x99\xe3\x83\x8e\xe8\xa7\x92\xe3\x82\xb3\xe3\x82\x99 Pro W6.otf'
p941
sg21
g22
sbag7
(g8
g9
NtRp942
(dp943
g12
g13
sg14
S'Symbol'
p944
sg16
I400
sg17
g13
sg18
g13
sg19
S'/System/Library/Fonts/Symbol.ttf'
p945
sg21
g22
sbag7
(g8
g9
NtRp946
(dp947
g12
g13
sg14
S'Corbel'
p948
sg16
I700
sg17
g13
sg18
g13
sg19
S'/Library/Fonts/Microsoft/Corbel Bold.ttf'
p949
sg21
g22
sbag7
(g8
g9
NtRp950
(dp951
g12
g62
sg14
S'Trebuchet MS'
p952
sg16
I700
sg17
g13
sg18
g13
sg19
S'/Library/Fonts/Trebuchet MS Bold Italic.ttf'
p953
sg21
g22
sbag7
(g8
g9
NtRp954
(dp955
g12
g62
sg14
S'Cambria'
p956
sg16
I400
sg17
g13
sg18
g13
sg19
S'/Library/Fonts/Microsoft/Cambria Italic.ttf'
p957
sg21
g22
sbag7
(g8
g9
NtRp958
(dp959
g12
g13
sg14
S'MingLiU_HKSCS-ExtB'
p960
sg16
I400
sg17
g13
sg18
g13
sg19
S'/Library/Fonts/Microsoft/MingLiU_HKSCS-ExtB.ttf'
p961
sg21
g22
sbag7
(g8
g9
NtRp962
(dp963
g12
g13
sg14
S'Al Bayan'
p964
sg16
I700
sg17
g13
sg18
g13
sg19
S'/Library/Fonts/AlBayanBold.ttf'
p965
sg21
g22
sbag7
(g8
g9
NtRp966
(dp967
g12
g13
sg14
S'HeadLineA'
p968
sg16
I400
sg17
g13
sg18
g13
sg19
S'/Library/Fonts/HeadlineA.ttf'
p969
sg21
g22
sbag7
(g8
g9
NtRp970
(dp971
g12
g13
sg14
S'MS Reference Specialty'
p972
sg16
I400
sg17
g13
sg18
g13
sg19
S'/Library/Fonts/Microsoft/MS Reference Specialty.ttf'
p973
sg21
g22
sbag7
(g8
g9
NtRp974
(dp975
g12
g13
sg14
S'Tahoma'
p976
sg16
I400
sg17
g13
sg18
g13
sg19
S'/Library/Fonts/Tahoma.ttf'
p977
sg21
g22
sbag7
(g8
g9
NtRp978
(dp979
g12
g13
sg14
S'Arial Hebrew'
p980
sg16
I700
sg17
g13
sg18
g13
sg19
S'/Library/Fonts/ArialHBBold.ttf'
p981
sg21
g22
sbag7
(g8
g9
NtRp982
(dp983
g12
g13
sg14
S'.Keyboard'
p984
sg16
I400
sg17
g13
sg18
g13
sg19
S'/System/Library/Fonts/Keyboard.ttf'
p985
sg21
g22
sbag7
(g8
g9
NtRp986
(dp987
g12
g13
sg14
S'Gill Sans MT'
p988
sg16
I700
sg17
g13
sg18
g13
sg19
S'/Library/Fonts/Microsoft/Gill Sans MT Bold.ttf'
p989
sg21
g22
sbag7
(g8
g9
NtRp990
(dp991
g12
g13
sg14
S'Hiragino Maru Gothic ProN'
p992
sg16
I400
sg17
g13
sg18
g13
sg19
S'/Library/Fonts/\xe3\x83\x92\xe3\x83\xa9\xe3\x82\xad\xe3\x82\x99\xe3\x83\x8e\xe4\xb8\xb8\xe3\x82\xb3\xe3\x82\x99 ProN W4.otf'
p993
sg21
g22
sbag7
(g8
g9
NtRp994
(dp995
g12
g13
sg14
S'Lucida Sans Unicode'
p996
sg16
I400
sg17
g13
sg18
g13
sg19
S'/Library/Fonts/Microsoft/Lucida Sans Unicode.ttf'
p997
sg21
g22
sbag7
(g8
g9
NtRp998
(dp999
g12
g62
sg14
S'Palatino Linotype'
p1000
sg16
I400
sg17
g13
sg18
g13
sg19
S'/Library/Fonts/Microsoft/Palatino Linotype Italic.ttf'
p1001
sg21
g22
sbag7
(g8
g9
NtRp1002
(dp1003
g12
g62
sg14
S'Tw Cen MT'
p1004
sg16
I400
sg17
g13
sg18
g13
sg19
S'/Library/Fonts/Microsoft/Tw Cen MT Italic.ttf'
p1005
sg21
g22
sbag7
(g8
g9
NtRp1006
(dp1007
g12
g62
sg14
S'Palatino Linotype'
p1008
sg16
I700
sg17
g13
sg18
g13
sg19
S'/Library/Fonts/Microsoft/Palatino Linotype Bold Italic.ttf'
p1009
sg21
g22
sbag7
(g8
g9
NtRp1010
(dp1011
g12
g13
sg14
S'STIXSizeOneSym'
p1012
sg16
I400
sg17
g13
sg18
g13
sg19
S'/Library/Fonts/STIXSizOneSymReg.otf'
p1013
sg21
g22
sbag7
(g8
g9
NtRp1014
(dp1015
g12
g13
sg14
S'STIXIntegralsUpSm'
p1016
sg16
I400
sg17
g13
sg18
g13
sg19
S'/Library/Fonts/STIXIntUpSmReg.otf'
p1017
sg21
g22
sbag7
(g8
g9
NtRp1018
(dp1019
g12
g13
sg14
S'Andale Mono'
p1020
sg16
I400
sg17
g13
sg18
g13
sg19
S'/Library/Fonts/Andale Mono.ttf'
p1021
sg21
g22
sbag7
(g8
g9
NtRp1022
(dp1023
g12
g13
sg14
S'Geeza Pro'
p1024
sg16
I400
sg17
g13
sg18
g13
sg19
S'/System/Library/Fonts/Geeza Pro.ttf'
p1025
sg21
g22
sbag7
(g8
g9
NtRp1026
(dp1027
g12
g13
sg14
S'Khmer Sangam MN'
p1028
sg16
I400
sg17
g13
sg18
g13
sg19
S'/Library/Fonts/Khmer Sangam MN.ttf'
p1029
sg21
g22
sbag7
(g8
g9
NtRp1030
(dp1031
g12
g62
sg14
S'Consolas'
p1032
sg16
I700
sg17
g13
sg18
g13
sg19
S'/Library/Fonts/Microsoft/Consolas Bold Italic.ttf'
p1033
sg21
g22
sbag7
(g8
g9
NtRp1034
(dp1035
g12
g13
sg14
S'Microsoft Sans Serif'
p1036
sg16
I400
sg17
g13
sg18
g13
sg19
S'/Library/Fonts/Microsoft Sans Serif.ttf'
p1037
sg21
g22
sbag7
(g8
g9
NtRp1038
(dp1039
g12
g13
sg14
S'Meiryo'
p1040
sg16
I400
sg17
g13
sg18
g13
sg19
S'/Library/Fonts/Microsoft/Meiryo.ttf'
p1041
sg21
g22
sbag7
(g8
g9
NtRp1042
(dp1043
g12
g13
sg14
S'STIXIntegralsUpD'
p1044
sg16
I700
sg17
g13
sg18
g13
sg19
S'/Library/Fonts/STIXIntUpDBol.otf'
p1045
sg21
g22
sbag7
(g8
g9
NtRp1046
(dp1047
g12
g13
sg14
S'Kai'
p1048
sg16
I400
sg17
g13
sg18
g13
sg19
S'/Library/Fonts/Kai.ttf'
p1049
sg21
g22
sbag7
(g8
g9
NtRp1050
(dp1051
g12
g13
sg14
S'STIXGeneral'
p1052
sg16
I400
sg17
g13
sg18
g13
sg19
S'/Library/Fonts/STIXGeneral.otf'
p1053
sg21
g22
sbag7
(g8
g9
NtRp1054
(dp1055
g12
g62
sg14
S'Courier New'
p1056
sg16
I400
sg17
g13
sg18
g13
sg19
S'/Library/Fonts/Courier New Italic.ttf'
p1057
sg21
g22
sbag7
(g8
g9
NtRp1058
(dp1059
g12
g13
sg14
S'Arial Black'
p1060
sg16
I900
sg17
g13
sg18
g13
sg19
S'/Library/Fonts/Arial Black.ttf'
p1061
sg21
g22
sbag7
(g8
g9
NtRp1062
(dp1063
g12
g62
sg14
S'Consolas'
p1064
sg16
I400
sg17
g13
sg18
g13
sg19
S'/Library/Fonts/Microsoft/Consolas Italic.ttf'
p1065
sg21
g22
sbag7
(g8
g9
NtRp1066
(dp1067
g12
g13
sg14
S'SimSun'
p1068
sg16
I400
sg17
g13
sg18
g13
sg19
S'/Library/Fonts/Microsoft/SimSun.ttf'
p1069
sg21
g22
sbag7
(g8
g9
NtRp1070
(dp1071
g12
g13
sg14
S'Serto Mardin'
p1072
sg16
I400
sg17
g13
sg18
g13
sg19
S'/usr/X11/lib/X11/fonts/OTF/SyrCOMMardin.otf'
p1073
sg21
g22
sbag7
(g8
g9
NtRp1074
(dp1075
g12
g62
sg14
S'STIXGeneral'
p1076
sg16
I400
sg17
g13
sg18
g13
sg19
S'/Library/Fonts/STIXGeneralItalic.otf'
p1077
sg21
g22
sbag7
(g8
g9
NtRp1078
(dp1079
g12
g13
sg14
S'Silom'
p1080
sg16
I400
sg17
g13
sg18
g13
sg19
S'/Library/Fonts/Silom.ttf'
p1081
sg21
g22
sbag7
(g8
g9
NtRp1082
(dp1083
g12
g13
sg14
S'Yuppy SC'
p1084
sg16
I400
sg17
g13
sg18
g13
sg19
S'/Library/Fonts/\xe9\x9b\x85\xe7\x97\x9e-\xe7\xae\x80.otf'
p1085
sg21
g22
sbag7
(g8
g9
NtRp1086
(dp1087
g12
g33
sg14
S'Mshtakan'
p1088
sg16
I700
sg17
g13
sg18
g13
sg19
S'/Library/Fonts/MshtakanBoldOblique.ttf'
p1089
sg21
g22
sbag7
(g8
g9
NtRp1090
(dp1091
g12
g13
sg14
S'Microsoft Tai Le'
p1092
sg16
I400
sg17
g13
sg18
g13
sg19
S'/Library/Fonts/Microsoft/taile.ttf'
p1093
sg21
g22
sbag7
(g8
g9
NtRp1094
(dp1095
g12
g13
sg14
S'Hiragino Kaku Gothic ProN'
p1096
sg16
I400
sg17
g13
sg18
g13
sg19
S'/System/Library/Fonts/\xe3\x83\x92\xe3\x83\xa9\xe3\x82\xad\xe3\x82\x99\xe3\x83\x8e\xe8\xa7\x92\xe3\x82\xb3\xe3\x82\x99 ProN W3.otf'
p1097
sg21
g22
sbag7
(g8
g9
NtRp1098
(dp1099
g12
g13
sg14
S'STHeiti'
p1100
sg16
I400
sg17
g13
sg18
g13
sg19
S'/Library/Fonts/\xe5\x8d\x8e\xe6\x96\x87\xe7\xbb\x86\xe9\xbb\x91.ttf'
p1101
sg21
g22
sbag7
(g8
g9
NtRp1102
(dp1103
g12
g13
sg14
S'STIXSizeFourSym'
p1104
sg16
I400
sg17
g13
sg18
g13
sg19
S'/Library/Fonts/STIXSizFourSymReg.otf'
p1105
sg21
g22
sbag7
(g8
g9
NtRp1106
(dp1107
g12
g13
sg14
S'STHeiti'
p1108
sg16
I400
sg17
g13
sg18
g13
sg19
S'/Library/Fonts/\xe5\x8d\x8e\xe6\x96\x87\xe9\xbb\x91\xe4\xbd\x93.ttf'
p1109
sg21
g22
sbag7
(g8
g9
NtRp1110
(dp1111
g12
g13
sg14
S'Apple Chancery'
p1112
sg16
I400
sg17
g13
sg18
g13
sg19
S'/Library/Fonts/Apple Chancery.ttf'
p1113
sg21
g22
sbag7
(g8
g9
NtRp1114
(dp1115
g12
g13
sg14
S'Microsoft Yi Baiti'
p1116
sg16
I400
sg17
g13
sg18
g13
sg19
S'/Library/Fonts/Microsoft/msyi.ttf'
p1117
sg21
g22
sbag7
(g8
g9
NtRp1118
(dp1119
g12
g13
sg14
S'Thonburi'
p1120
sg16
I400
sg17
g13
sg18
g13
sg19
S'/System/Library/Fonts/Thonburi.ttf'
p1121
sg21
g22
sbag7
(g8
g9
NtRp1122
(dp1123
g12
g62
sg14
S'Calibri'
p1124
sg16
I400
sg17
g13
sg18
g13
sg19
S'/Library/Fonts/Microsoft/Calibri Italic.ttf'
p1125
sg21
g22
sbag7
(g8
g9
NtRp1126
(dp1127
g12
g13
sg14
S'Candara'
p1128
sg16
I400
sg17
g13
sg18
g13
sg19
S'/Library/Fonts/Microsoft/Candara.ttf'
p1129
sg21
g22
sbag7
(g8
g9
NtRp1130
(dp1131
g12
g13
sg14
S'Wingdings 3'
p1132
sg16
I400
sg17
g13
sg18
g13
sg19
S'/Library/Fonts/Wingdings 3.ttf'
p1133
sg21
g22
sbag7
(g8
g9
NtRp1134
(dp1135
g12
g13
sg14
S'MingLiU'
p1136
sg16
I400
sg17
g13
sg18
g13
sg19
S'/Library/Fonts/Microsoft/MingLiU.ttf'
p1137
sg21
g22
sbag7
(g8
g9
NtRp1138
(dp1139
g12
g62
sg14
S'STIXGeneral'
p1140
sg16
I700
sg17
g13
sg18
g13
sg19
S'/Library/Fonts/STIXGeneralBolIta.otf'
p1141
sg21
g22
sbag7
(g8
g9
NtRp1142
(dp1143
g12
g13
sg14
S'Arial Hebrew'
p1144
sg16
I400
sg17
g13
sg18
g13
sg19
S'/Library/Fonts/ArialHB.ttf'
p1145
sg21
g22
sbag7
(g8
g9
NtRp1146
(dp1147
g12
g13
sg14
S'STIXIntegralsUpSm'
p1148
sg16
I700
sg17
g13
sg18
g13
sg19
S'/Library/Fonts/STIXIntUpSmBol.otf'
p1149
sg21
g22
sbag7
(g8
g9
NtRp1150
(dp1151
g12
g13
sg14
S'Lao Sangam MN'
p1152
sg16
I400
sg17
g13
sg18
g13
sg19
S'/Library/Fonts/Lao Sangam MN.ttf'
p1153
sg21
g22
sbag7
(g8
g9
NtRp1154
(dp1155
g12
g13
sg14
S'KufiStandardGK'
p1156
sg16
I400
sg17
g13
sg18
g13
sg19
S'/Library/Fonts/KufiStandardGK.ttf'
p1157
sg21
g22
sbag7
(g8
g9
NtRp1158
(dp1159
g12
g13
sg14
S'Consolas'
p1160
sg16
I400
sg17
g13
sg18
g13
sg19
S'/Library/Fonts/Microsoft/Consolas.ttf'
p1161
sg21
g22
sbag7
(g8
g9
NtRp1162
(dp1163
g12
g62
sg14
S'Perpetua'
p1164
sg16
I400
sg17
g13
sg18
g13
sg19
S'/Library/Fonts/Microsoft/Perpetua Italic.ttf'
p1165
sg21
g22
sbag7
(g8
g9
NtRp1166
(dp1167
g12
g13
sg14
S'STIXSizeOneSym'
p1168
sg16
I700
sg17
g13
sg18
g13
sg19
S'/Library/Fonts/STIXSizOneSymBol.otf'
p1169
sg21
g22
sbag7
(g8
g9
NtRp1170
(dp1171
g12
g13
sg14
S'SimSun-ExtB'
p1172
sg16
I400
sg17
g13
sg18
g13
sg19
S'/Library/Fonts/Microsoft/SimSun-ExtB.ttf'
p1173
sg21
g22
sbag7
(g8
g9
NtRp1174
(dp1175
g12
g13
sg14
S'Palatino Linotype'
p1176
sg16
I400
sg17
g13
sg18
g13
sg19
S'/Library/Fonts/Microsoft/Palatino Linotype.ttf'
p1177
sg21
g22
sbag7
(g8
g9
NtRp1178
(dp1179
g12
g13
sg14
S'Comic Sans MS'
p1180
sg16
I400
sg17
g13
sg18
g13
sg19
S'/Library/Fonts/Comic Sans MS.ttf'
p1181
sg21
g22
sbag7
(g8
g9
NtRp1182
(dp1183
g12
g13
sg14
S'STIXSizeTwoSym'
p1184
sg16
I400
sg17
g13
sg18
g13
sg19
S'/Library/Fonts/STIXSizTwoSymReg.otf'
p1185
sg21
g22
sbag7
(g8
g9
NtRp1186
(dp1187
g12
g13
sg14
S'Hei'
p1188
sg16
I400
sg17
g13
sg18
g13
sg19
S'/Library/Fonts/Hei.ttf'
p1189
sg21
g22
sbag7
(g8
g9
NtRp1190
(dp1191
g12
g13
sg14
S'PMingLiU'
p1192
sg16
I400
sg17
g13
sg18
g13
sg19
S'/Library/Fonts/Microsoft/PMingLiU.ttf'
p1193
sg21
g22
sbag7
(g8
g9
NtRp1194
(dp1195
g12
g13
sg14
S'STIXSizeFourSym'
p1196
sg16
I700
sg17
g13
sg18
g13
sg19
S'/Library/Fonts/STIXSizFourSymBol.otf'
p1197
sg21
g22
sbag7
(g8
g9
NtRp1198
(dp1199
g12
g13
sg14
S'Apple LiGothic'
p1200
sg16
I500
sg17
g13
sg18
g13
sg19
S'/Library/Fonts/Apple LiGothic Medium.ttf'
p1201
sg21
g22
sbag7
(g8
g9
NtRp1202
(dp1203
g12
g13
sg14
S'New Peninim MT'
p1204
sg16
I700
sg17
g13
sg18
g13
sg19
S'/Library/Fonts/NewPeninimMTBold.ttf'
p1205
sg21
g22
sbag7
(g8
g9
NtRp1206
(dp1207
g12
g62
sg14
S'Cambria'
p1208
sg16
I700
sg17
g13
sg18
g13
sg19
S'/Library/Fonts/Microsoft/Cambria Bold Italic.ttf'
p1209
sg21
g22
sbag7
(g8
g9
NtRp1210
(dp1211
g12
g13
sg14
S'Georgia'
p1212
sg16
I700
sg17
g13
sg18
g13
sg19
S'/Library/Fonts/Georgia Bold.ttf'
p1213
sg21
g22
sbag7
(g8
g9
NtRp1214
(dp1215
g12
g13
sg14
S'Gabriola'
p1216
sg16
I400
sg17
g13
sg18
g13
sg19
S'/Library/Fonts/Microsoft/Gabriola.ttf'
p1217
sg21
g22
sbag7
(g8
g9
NtRp1218
(dp1219
g12
g13
sg14
S'Marlett'
p1220
sg16
I400
sg17
g13
sg18
g13
sg19
S'/Library/Fonts/Microsoft/Marlett.ttf'
p1221
sg21
g22
sbag7
(g8
g9
NtRp1222
(dp1223
g12
g13
sg14
S'Calibri'
p1224
sg16
I700
sg17
g13
sg18
g13
sg19
S'/Library/Fonts/Microsoft/Calibri Bold.ttf'
p1225
sg21
g22
sbag7
(g8
g9
NtRp1226
(dp1227
g12
g13
sg14
S'Osaka'
p1228
sg16
I400
sg17
g13
sg18
g13
sg19
S'/Library/Fonts/OsakaMono.ttf'
p1229
sg21
g22
sbag7
(g8
g9
NtRp1230
(dp1231
g12
g62
sg14
S'Serto Jerusalem'
p1232
sg16
I400
sg17
g13
sg18
g13
sg19
S'/usr/X11/lib/X11/fonts/OTF/SyrCOMJerusalemItalic.otf'
p1233
sg21
g22
sbag7
(g8
g9
NtRp1234
(dp1235
g12
g33
sg14
S'Luxi Sans'
p1236
sg16
I400
sg17
g13
sg18
g13
sg19
S'/usr/X11/lib/X11/fonts/TTF/luxisri.ttf'
p1237
sg21
g22
sbag7
(g8
g9
NtRp1238
(dp1239
g12
g13
sg14
S'Apple Braille'
p1240
sg16
I400
sg17
g13
sg18
g13
sg19
S'/System/Library/Fonts/Apple Braille Pinpoint 8 Dot.ttf'
p1241
sg21
g22
sbag7
(g8
g9
NtRp1242
(dp1243
g12
g13
sg14
S'STIXSizeTwoSym'
p1244
sg16
I700
sg17
g13
sg18
g13
sg19
S'/Library/Fonts/STIXSizTwoSymBol.otf'
p1245
sg21
g22
sbag7
(g8
g9
NtRp1246
(dp1247
g12
g13
sg14
S'Serto Batnan'
p1248
sg16
I400
sg17
g13
sg18
g13
sg19
S'/usr/X11/lib/X11/fonts/OTF/SyrCOMBatnan.otf'
p1249
sg21
g22
sbag7
(g8
g9
NtRp1250
(dp1251
g12
g13
sg14
S'Impact'
p1252
sg16
I400
sg17
g13
sg18
g13
sg19
S'/Library/Fonts/Impact.ttf'
p1253
sg21
g22
sbag7
(g8
g9
NtRp1254
(dp1255
g12
g13
sg14
S'Apple Braille'
p1256
sg16
I400
sg17
g13
sg18
g13
sg19
S'/System/Library/Fonts/Apple Braille Outline 6 Dot.ttf'
p1257
sg21
g22
sbag7
(g8
g9
NtRp1258
(dp1259
g12
g13
sg14
S'Tahoma'
p1260
sg16
I700
sg17
g13
sg18
g13
sg19
S'/Library/Fonts/Tahoma Bold.ttf'
p1261
sg21
g22
sbag7
(g8
g9
NtRp1262
(dp1263
g12
g13
sg14
S'STIXNonUnicode'
p1264
sg16
I700
sg17
g13
sg18
g13
sg19
S'/Library/Fonts/STIXNonUniBol.otf'
p1265
sg21
g22
sbag7
(g8
g9
NtRp1266
(dp1267
g12
g62
sg14
S'Georgia'
p1268
sg16
I700
sg17
g13
sg18
g13
sg19
S'/Library/Fonts/Georgia Bold Italic.ttf'
p1269
sg21
g22
sbag7
(g8
g9
NtRp1270
(dp1271
g12
g13
sg14
S'STIXIntegralsUpD'
p1272
sg16
I400
sg17
g13
sg18
g13
sg19
S'/Library/Fonts/STIXIntUpDReg.otf'
p1273
sg21
g22
sbag7
(g8
g9
NtRp1274
(dp1275
g12
g13
sg14
S'Sathu'
p1276
sg16
I400
sg17
g13
sg18
g13
sg19
S'/Library/Fonts/Sathu.ttf'
p1277
sg21
g22
sbag7
(g8
g9
NtRp1278
(dp1279
g12
g13
sg14
S'Gujarati MT'
p1280
sg16
I400
sg17
g13
sg18
g13
sg19
S'/Library/Fonts/GujaratiMT.ttf'
p1281
sg21
g22
sbag7
(g8
g9
NtRp1282
(dp1283
g12
g62
sg14
S'Gill Sans MT'
p1284
sg16
I700
sg17
g13
sg18
g13
sg19
S'/Library/Fonts/Microsoft/Gill Sans MT Bold Italic.ttf'
p1285
sg21
g22
sbag7
(g8
g9
NtRp1286
(dp1287
g12
g13
sg14
S'Consolas'
p1288
sg16
I700
sg17
g13
sg18
g13
sg19
S'/Library/Fonts/Microsoft/Consolas Bold.ttf'
p1289
sg21
g22
sbag7
(g8
g9
NtRp1290
(dp1291
g12
g13
sg14
S'Apple SD Gothic Neo'
p1292
sg16
I500
sg17
g13
sg18
g13
sg19
S'/Library/Fonts/AppleSDGothicNeo-Medium.otf'
p1293
sg21
g22
sbasS'defaultFamily'
p1294
(dp1295
S'afm'
p1296
S'Helvetica'
p1297
sS'ttf'
p1298
S'Bitstream Vera Sans'
p1299
ssS'ttffiles'
p1300
(lp1301
S'/opt/epd/lib/python2.7/site-packages/matplotlib/mpl-data/fonts/ttf/STIXSizThreeSymBol.ttf'
p1302
aS'/opt/epd/lib/python2.7/site-packages/matplotlib/mpl-data/fonts/ttf/STIXSizOneSymBol.ttf'
p1303
aS'/opt/epd/lib/python2.7/site-packages/matplotlib/mpl-data/fonts/ttf/VeraMoBd.ttf'
p1304
aS'/opt/epd/lib/python2.7/site-packages/matplotlib/mpl-data/fonts/ttf/VeraMoBI.ttf'
p1305
aS'/opt/epd/lib/python2.7/site-packages/matplotlib/mpl-data/fonts/ttf/VeraIt.ttf'
p1306
aS'/opt/epd/lib/python2.7/site-packages/matplotlib/mpl-data/fonts/ttf/Vera.ttf'
p1307
aS'/opt/epd/lib/python2.7/site-packages/matplotlib/mpl-data/fonts/ttf/STIXSizFourSymReg.ttf'
p1308
aS'/opt/epd/lib/python2.7/site-packages/matplotlib/mpl-data/fonts/ttf/STIXGeneral.ttf'
p1309
aS'/opt/epd/lib/python2.7/site-packages/matplotlib/mpl-data/fonts/ttf/cmex10.ttf'
p1310
aS'/opt/epd/lib/python2.7/site-packages/matplotlib/mpl-data/fonts/ttf/cmtt10.ttf'
p1311
aS'/opt/epd/lib/python2.7/site-packages/matplotlib/mpl-data/fonts/ttf/STIXGeneralBolIta.ttf'
p1312
aS'/opt/epd/lib/python2.7/site-packages/matplotlib/mpl-data/fonts/ttf/STIXGeneralItalic.ttf'
p1313
aS'/opt/epd/lib/python2.7/site-packages/matplotlib/mpl-data/fonts/ttf/STIXSizTwoSymReg.ttf'
p1314
aS'/opt/epd/lib/python2.7/site-packages/matplotlib/mpl-data/fonts/ttf/VeraBI.ttf'
p1315
aS'/opt/epd/lib/python2.7/site-packages/matplotlib/mpl-data/fonts/ttf/cmmi10.ttf'
p1316
aS'/opt/epd/lib/python2.7/site-packages/matplotlib/mpl-data/fonts/ttf/VeraSeBd.ttf'
p1317
aS'/opt/epd/lib/python2.7/site-packages/matplotlib/mpl-data/fonts/ttf/STIXSizFiveSymReg.ttf'
p1318
aS'/opt/epd/lib/python2.7/site-packages/matplotlib/mpl-data/fonts/ttf/VeraMoIt.ttf'
p1319
aS'/opt/epd/lib/python2.7/site-packages/matplotlib/mpl-data/fonts/ttf/cmb10.ttf'
p1320
aS'/opt/epd/lib/python2.7/site-packages/matplotlib/mpl-data/fonts/ttf/cmsy10.ttf'
p1321
aS'/opt/epd/lib/python2.7/site-packages/matplotlib/mpl-data/fonts/ttf/STIXSizFourSymBol.ttf'
p1322
aS'/opt/epd/lib/python2.7/site-packages/matplotlib/mpl-data/fonts/ttf/STIXNonUniBolIta.ttf'
p1323
aS'/opt/epd/lib/python2.7/site-packages/matplotlib/mpl-data/fonts/ttf/cmr10.ttf'
p1324
aS'/opt/epd/lib/python2.7/site-packages/matplotlib/mpl-data/fonts/ttf/VeraMono.ttf'
p1325
aS'/opt/epd/lib/python2.7/site-packages/matplotlib/mpl-data/fonts/ttf/VeraBd.ttf'
p1326
aS'/opt/epd/lib/python2.7/site-packages/matplotlib/mpl-data/fonts/ttf/STIXSizThreeSymReg.ttf'
p1327
aS'/opt/epd/lib/python2.7/site-packages/matplotlib/mpl-data/fonts/ttf/STIXNonUni.ttf'
p1328
aS'/opt/epd/lib/python2.7/site-packages/matplotlib/mpl-data/fonts/ttf/VeraSe.ttf'
p1329
aS'/opt/epd/lib/python2.7/site-packages/matplotlib/mpl-data/fonts/ttf/STIXNonUniBol.ttf'
p1330
aS'/opt/epd/lib/python2.7/site-packages/matplotlib/mpl-data/fonts/ttf/STIXSizOneSymReg.ttf'
p1331
aS'/opt/epd/lib/python2.7/site-packages/matplotlib/mpl-data/fonts/ttf/STIXSizTwoSymBol.ttf'
p1332
aS'/opt/epd/lib/python2.7/site-packages/matplotlib/mpl-data/fonts/ttf/cmss10.ttf'
p1333
aS'/opt/epd/lib/python2.7/site-packages/matplotlib/mpl-data/fonts/ttf/STIXNonUniIta.ttf'
p1334
aS'/opt/epd/lib/python2.7/site-packages/matplotlib/mpl-data/fonts/ttf/STIXGeneralBol.ttf'
p1335
aS'/Library/Fonts/Microsoft/MS PGothic.ttf'
p1336
aS'/Library/Fonts/Trebuchet MS Italic.ttf'
p1337
aS'/usr/X11R6/lib/X11/fonts/TTF/VeraBd.ttf'
p1338
aS'/Library/Fonts/Hoefler Text Ornaments.ttf'
p1339
aS'/Library/Fonts/NewPeninimMTBoldInclined.ttf'
p1340
aS'/Library/Fonts/Microsoft/Meiryo Bold Italic.ttf'
p1341
aS'/Library/Fonts/MshtakanRegular.ttf'
p1342
aS'/usr/X11R6/lib/X11/fonts/TTF/VeraBI.ttf'
p1343
aS'/System/Library/Fonts/\xe3\x83\x92\xe3\x83\xa9\xe3\x82\xad\xe3\x82\x99\xe3\x83\x8e\xe6\x98\x8e\xe6\x9c\x9d ProN W6.otf'
p1344
aS'/Library/Fonts/Osaka.ttf'
p1345
aS'/Library/Fonts/Microsoft/Candara Italic.ttf'
p1346
aS'/Library/Fonts/Verdana Bold.ttf'
p1347
aS'/usr/X11/lib/X11/fonts/TTF/luximb.ttf'
p1348
aS'/Library/Fonts/AppleSDGothicNeo-UltraLight.otf'
p1349
aS'/Library/Fonts/\xe5\x84\xb7\xe9\xbb\x91 Pro.ttf'
p1350
aS'/Library/Fonts/Arial Unicode.ttf'
p1351
aS'/usr/X11/lib/X11/fonts/TTF/VeraSe.ttf'
p1352
aS'/Library/Fonts/STIXSizThreeSymReg.otf'
p1353
aS'/usr/X11R6/lib/X11/fonts/TTF/VeraMoBI.ttf'
p1354
aS'/Library/Fonts/Microsoft/Gill Sans MT.ttf'
p1355
aS'/Library/Fonts/Microsoft/Gill Sans MT Italic.ttf'
p1356
aS'/usr/X11/lib/X11/fonts/OTF/SyrCOMKharput.otf'
p1357
aS'/usr/X11R6/lib/X11/fonts/TTF/luxirri.ttf'
p1358
aS'/Library/Fonts/Microsoft/himalaya.ttf'
p1359
aS'/usr/X11R6/lib/X11/fonts/TTF/VeraMoIt.ttf'
p1360
aS'/Library/Fonts/NewPeninimMT.ttf'
p1361
aS'/Library/Fonts/Times New Roman.ttf'
p1362
aS'/usr/X11/lib/X11/fonts/TTF/VeraSeBd.ttf'
p1363
aS'/Library/Fonts/AppleSDGothicNeo-Heavy.otf'
p1364
aS'/Library/Fonts/Arial.ttf'
p1365
aS'/Library/Fonts/Raanana.ttf'
p1366
aS'/Library/Fonts/AppleGothic.ttf'
p1367
aS'/Library/Fonts/Microsoft/Cambria Bold.ttf'
p1368
aS'/Library/Fonts/Microsoft/Palatino Linotype Bold.ttf'
p1369
aS'/usr/X11R6/lib/X11/fonts/TTF/luxirbi.ttf'
p1370
aS'/Library/Fonts/GujaratiMTBold.ttf'
p1371
aS'/Library/Fonts/Microsoft/Meiryo Italic.ttf'
p1372
aS'/Library/Fonts/Arial Narrow.ttf'
p1373
aS'/usr/X11/lib/X11/fonts/TTF/luximbi.ttf'
p1374
aS'/System/Library/Fonts/AppleSDGothicNeo-Bold.otf'
p1375
aS'/Library/Fonts/Microsoft/Tw Cen MT Bold.ttf'
p1376
aS'/Library/Fonts/NISC18030.ttf'
p1377
aS'/Library/Fonts/MshtakanOblique.ttf'
p1378
aS'/Library/Fonts/\xe3\x83\x92\xe3\x83\xa9\xe3\x82\xad\xe3\x82\x99\xe3\x83\x8e\xe8\xa7\x92\xe3\x82\xb3\xe3\x82\x99 Pro W3.otf'
p1379
aS'/Library/Fonts/Microsoft/Times New Roman Italic.ttf'
p1380
aS'/Library/Fonts/Microsoft/Times New Roman.ttf'
p1381
aS'/usr/X11/lib/X11/fonts/OTF/SyrCOMBatnanBold.otf'
p1382
aS'/Library/Fonts/AppleMyungjo.ttf'
p1383
aS'/usr/X11/lib/X11/fonts/TTF/VeraBd.ttf'
p1384
aS'/usr/X11/lib/X11/fonts/OTF/SyrCOMMardinBold.otf'
p1385
aS'/Library/Fonts/Microsoft/Arial Italic.ttf'
p1386
aS'/usr/X11/lib/X11/fonts/OTF/SyrCOMJerusalemOutline.otf'
p1387
aS'/Library/Fonts/Microsoft/Candara Bold Italic.ttf'
p1388
aS'/Library/Fonts/Verdana.ttf'
p1389
aS'/Library/Fonts/Corsiva.ttf'
p1390
aS'/Library/Fonts/Microsoft/PMingLiU-ExtB.ttf'
p1391
aS'/usr/X11/lib/X11/fonts/TTF/luximri.ttf'
p1392
aS'/Library/Fonts/Microsoft/Calibri Bold Italic.ttf'
p1393
aS'/Library/Fonts/STIXIntDBol.otf'
p1394
aS'/Library/Fonts/Apple LiSung Light.ttf'
p1395
aS'/Library/Fonts/Microsoft/Corbel Bold Italic.ttf'
p1396
aS'/usr/X11R6/lib/X11/fonts/TTF/VeraMono.ttf'
p1397
aS'/Library/Fonts/Myanmar Sangam MN.ttf'
p1398
aS'/Library/Fonts/STIXSizThreeSymBol.otf'
p1399
aS'/Library/Fonts/Microsoft/MS Mincho.ttf'
p1400
aS'/Library/Fonts/Courier New.ttf'
p1401
aS'/Library/Fonts/Arial Narrow Bold Italic.ttf'
p1402
aS'/usr/X11/lib/X11/fonts/OTF/SyrCOMJerusalem.otf'
p1403
aS'/Library/Fonts/Zapfino.ttf'
p1404
aS'/Library/Fonts/Arial Narrow Bold.ttf'
p1405
aS'/Library/Fonts/Times New Roman Italic.ttf'
p1406
aS'/System/Library/Fonts/\xe3\x83\x92\xe3\x83\xa9\xe3\x82\xad\xe3\x82\x99\xe3\x83\x8e\xe8\xa7\x92\xe3\x82\xb3\xe3\x82\x99 ProN W6.otf'
p1407
aS'/Library/Fonts/Krungthep.ttf'
p1408
aS'/Library/Fonts/\xe3\x83\x92\xe3\x83\xa9\xe3\x82\xad\xe3\x82\x99\xe3\x83\x8e\xe6\x98\x8e\xe6\x9c\x9d Pro W3.otf'
p1409
aS'/Library/Fonts/AppleSDGothicNeo-ExtraBold.otf'
p1410
aS'/usr/X11/lib/X11/fonts/OTF/SyrCOMAdiabene.otf'
p1411
aS'/Library/Fonts/Microsoft/Times New Roman Bold Italic.ttf'
p1412
aS'/Library/Fonts/Microsoft/monbaiti.ttf'
p1413
aS'/Library/Fonts/Georgia.ttf'
p1414
aS'/Library/Fonts/Microsoft/Candara Bold.ttf'
p1415
aS'/Library/Fonts/STIXIntSmBol.otf'
p1416
aS'/Library/Fonts/Microsoft/Gulim.ttf'
p1417
aS'/Library/Fonts/Trebuchet MS Bold.ttf'
p1418
aS'/usr/X11/lib/X11/fonts/OTF/SyrCOMTurAbdin.otf'
p1419
aS'/Library/Fonts/Microsoft/Constantia Bold.ttf'
p1420
aS'/usr/X11R6/lib/X11/fonts/TTF/VeraMoBd.ttf'
p1421
aS'/Library/Fonts/Microsoft/Meiryo Bold.ttf'
p1422
aS'/Library/Fonts/Microsoft/mingliu_hkscs.ttf'
p1423
aS'/System/Library/Fonts/Apple Symbols.ttf'
p1424
aS'/usr/X11/lib/X11/fonts/OTF/SyrCOMNisibinOutline.otf'
p1425
aS'/Library/Fonts/Times New Roman Bold Italic.ttf'
p1426
aS'/Library/Fonts/Webdings.ttf'
p1427
aS'/Library/Fonts/Arial Narrow Italic.ttf'
p1428
aS'/usr/X11/lib/X11/fonts/OTF/SyrCOMCtesiphon.otf'
p1429
aS'/usr/X11R6/lib/X11/fonts/TTF/luximr.ttf'
p1430
aS'/System/Library/Fonts/AppleSDGothicNeo-Regular.otf'
p1431
aS'/System/Library/Fonts/\xe3\x83\x92\xe3\x83\xa9\xe3\x82\xad\xe3\x82\x99\xe3\x83\x8e\xe6\x98\x8e\xe6\x9c\x9d ProN W3.otf'
p1432
aS'/Library/Fonts/Pilgiche.ttf'
p1433
aS'/usr/X11/lib/X11/fonts/OTF/SyrCOMMidyat.otf'
p1434
aS'/System/Library/Fonts/Apple Braille Outline 8 Dot.ttf'
p1435
aS'/Library/Fonts/Microsoft/Arial Bold.ttf'
p1436
aS'/usr/X11R6/lib/X11/fonts/TTF/VeraSe.ttf'
p1437
aS'/Library/Fonts/Microsoft/Bookshelf Symbol 7.ttf'
p1438
aS'/Library/Fonts/Nadeem.ttf'
p1439
aS'/Library/Fonts/PlantagenetCherokee.ttf'
p1440
aS'/usr/X11R6/lib/X11/fonts/TTF/luxirr.ttf'
p1441
aS'/Library/Fonts/Times New Roman Bold.ttf'
p1442
aS'/Library/Fonts/BiauKai.ttf'
p1443
aS'/Library/Fonts/Microsoft/MS Gothic.ttf'
p1444
aS'/usr/X11/lib/X11/fonts/TTF/VeraIt.ttf'
p1445
aS'/Library/Fonts/Microsoft/Brush Script.ttf'
p1446
aS'/Library/Fonts/Microsoft/Corbel Italic.ttf'
p1447
aS'/usr/X11/lib/X11/fonts/TTF/luxisbi.ttf'
p1448
aS'/Library/Fonts/Arial Bold Italic.ttf'
p1449
aS'/usr/X11/lib/X11/fonts/TTF/GohaTibebZemen.ttf'
p1450
aS'/Library/Fonts/Microsoft/Tw Cen MT Bold Italic.ttf'
p1451
aS'/Library/Fonts/Microsoft/Franklin Gothic Book Italic.ttf'
p1452
aS'/Library/Fonts/STIXVar.otf'
p1453
aS'/Library/Fonts/STIXVarBol.otf'
p1454
aS'/usr/X11/lib/X11/fonts/OTF/SyrCOMMalankara.otf'
p1455
aS'/Library/Fonts/Hiragino Sans GB W3.otf'
p1456
aS'/Library/Fonts/Microsoft/Perpetua.ttf'
p1457
aS'/Library/Fonts/\xe3\x83\x92\xe3\x83\xa9\xe3\x82\xad\xe3\x82\x99\xe3\x83\x8e\xe8\xa7\x92\xe3\x82\xb3\xe3\x82\x99 StdN W8.otf'
p1458
aS'/Library/Fonts/MshtakanBold.ttf'
p1459
aS'/usr/X11/lib/X11/fonts/TTF/VeraMoIt.ttf'
p1460
aS'/usr/X11/lib/X11/fonts/TTF/VeraMoBd.ttf'
p1461
aS'/usr/X11/lib/X11/fonts/TTF/VeraMono.ttf'
p1462
aS'/Library/Fonts/Microsoft/Cambria Math.ttf'
p1463
aS'/Library/Fonts/Microsoft/MS PMincho.ttf'
p1464
aS'/Library/Fonts/STIXIntUpBol.otf'
p1465
aS'/Library/Fonts/Microsoft/MS Reference Sans Serif.ttf'
p1466
aS'/Library/Fonts/AlBayan.ttf'
p1467
aS'/Library/Fonts/STIXSizFiveSymReg.otf'
p1468
aS'/Library/Fonts/CorsivaBold.ttf'
p1469
aS'/usr/X11R6/lib/X11/fonts/TTF/luxisbi.ttf'
p1470
aS'/Library/Fonts/Microsoft/Corbel.ttf'
p1471
aS'/usr/X11/lib/X11/fonts/TTF/luxisb.ttf'
p1472
aS'/usr/X11/lib/X11/fonts/OTF/SyrCOMUrhoyBold.otf'
p1473
aS'/Library/Fonts/Gurmukhi.ttf'
p1474
aS'/usr/X11/lib/X11/fonts/OTF/SyrCOMJerusalemBold.otf'
p1475
aS'/usr/X11/lib/X11/fonts/OTF/SyrCOMQenNeshrin.otf'
p1476
aS'/usr/X11R6/lib/X11/fonts/TTF/VeraIt.ttf'
p1477
aS'/System/Library/Fonts/Apple Color Emoji.ttf'
p1478
aS'/Library/Fonts/Skia.ttf'
p1479
aS'/Library/Fonts/\xe5\x8d\x8e\xe6\x96\x87\xe4\xbb\xbf\xe5\xae\x8b.ttf'
p1480
aS'/Library/Fonts/Microsoft/Lucida Console.ttf'
p1481
aS'/Library/Fonts/Arial Italic.ttf'
p1482
aS'/Library/Fonts/\xe3\x83\x92\xe3\x83\xa9\xe3\x82\xad\xe3\x82\x99\xe3\x83\x8e\xe8\xa7\x92\xe3\x82\xb3\xe3\x82\x99 Std W8.otf'
p1483
aS'/usr/X11R6/lib/X11/fonts/TTF/luxisb.ttf'
p1484
aS'/Library/Fonts/\xe5\x84\xb7\xe5\xae\x8b Pro.ttf'
p1485
aS'/System/Library/Fonts/LastResort.ttf'
p1486
aS'/Library/Fonts/\xe3\x83\x92\xe3\x83\xa9\xe3\x82\xad\xe3\x82\x99\xe3\x83\x8e\xe4\xb8\xb8\xe3\x82\xb3\xe3\x82\x99 Pro W4.otf'
p1487
aS'/Library/Fonts/STIXGeneralBol.otf'
p1488
aS'/Library/Fonts/STIXNonUniBolIta.otf'
p1489
aS'/Library/Fonts/Microsoft/Perpetua Bold Italic.ttf'
p1490
aS'/usr/X11R6/lib/X11/fonts/TTF/luxirb.ttf'
p1491
aS'/Library/Fonts/Georgia Italic.ttf'
p1492
aS'/Library/Fonts/Microsoft/TaiLeb.ttf'
p1493
aS'/Library/Fonts/Chalkduster.ttf'
p1494
aS'/Library/Fonts/Courier New Bold Italic.ttf'
p1495
aS'/Library/Fonts/RaananaBold.ttf'
p1496
aS'/usr/X11/lib/X11/fonts/OTF/SyrCOMTalada.otf'
p1497
aS'/Library/Fonts/NewPeninimMTInclined.ttf'
p1498
aS'/Library/Fonts/Microsoft/Verdana Bold.ttf'
p1499
aS'/System/Library/Fonts/ZapfDingbats.ttf'
p1500
aS'/Library/Fonts/Arial Rounded Bold.ttf'
p1501
aS'/Library/Fonts/DevanagariMTBold.ttf'
p1502
aS'/Library/Fonts/Microsoft/Verdana.ttf'
p1503
aS'/System/Library/Fonts/ThonburiBold.ttf'
p1504
aS'/usr/X11/lib/X11/fonts/TTF/luxirri.ttf'
p1505
aS'/Library/Fonts/Microsoft/SimHei.ttf'
p1506
aS'/Library/Fonts/Microsoft/Franklin Gothic Medium.ttf'
p1507
aS'/Library/Fonts/PCmyoungjo.ttf'
p1508
aS'/Library/Fonts/Microsoft/Calibri.ttf'
p1509
aS'/Library/Fonts/AppleSDGothicNeo-Light.otf'
p1510
aS'/Library/Fonts/Microsoft/MingLiU-ExtB.ttf'
p1511
aS'/Library/Fonts/Verdana Bold Italic.ttf'
p1512
aS'/Library/Fonts/Microsoft/Franklin Gothic Medium Italic.ttf'
p1513
aS'/Library/Fonts/\xe9\x9b\x85\xe7\x97\x9e-\xe7\xb9\x81.otf'
p1514
aS'/Library/Fonts/Hiragino Sans GB W6.otf'
p1515
aS'/Library/Fonts/Kailasa.ttf'
p1516
aS'/usr/X11/lib/X11/fonts/OTF/SyrCOMEdessa.otf'
p1517
aS'/Library/Fonts/STIXIntSmReg.otf'
p1518
aS'/Library/Fonts/AppleSDGothicNeo-Thin.otf'
p1519
aS'/Library/Fonts/Kokonor.ttf'
p1520
aS'/System/Library/Fonts/Geeza Pro Bold.ttf'
p1521
aS'/usr/X11/lib/X11/fonts/OTF/GohaTibebZemen.otf'
p1522
aS'/Library/Fonts/Verdana Italic.ttf'
p1523
aS'/Library/Fonts/DevanagariMT.ttf'
p1524
aS'/System/Library/Fonts/Apple Braille.ttf'
p1525
aS'/Library/Fonts/Microsoft/Constantia Italic.ttf'
p1526
aS'/Library/Fonts/\xe3\x83\x92\xe3\x83\xa9\xe3\x82\xad\xe3\x82\x99\xe3\x83\x8e\xe6\x98\x8e\xe6\x9c\x9d Pro W6.otf'
p1527
aS'/Library/Fonts/Microsoft/Constantia.ttf'
p1528
aS'/Library/Fonts/Microsoft/Constantia Bold Italic.ttf'
p1529
aS'/Library/Fonts/InaiMathi.ttf'
p1530
aS'/usr/X11R6/lib/X11/fonts/TTF/Vera.ttf'
p1531
aS'/usr/X11/lib/X11/fonts/OTF/SyrCOMAntioch.otf'
p1532
aS'/Library/Fonts/Microsoft/Cambria.ttf'
p1533
aS'/Library/Fonts/Microsoft/Perpetua Bold.ttf'
p1534
aS'/Library/Fonts/STIXNonUni.otf'
p1535
aS'/Library/Fonts/Microsoft/Batang.ttf'
p1536
aS'/Library/Fonts/Microsoft/Verdana Italic.ttf'
p1537
aS'/Library/Fonts/Microsoft/Franklin Gothic Book.ttf'
p1538
aS'/Library/Fonts/STIXIntDReg.otf'
p1539
aS'/usr/X11/lib/X11/fonts/TTF/luxirb.ttf'
p1540
aS'/Library/Fonts/STIXNonUniIta.otf'
p1541
aS'/Library/Fonts/Baghdad.ttf'
p1542
aS'/Library/Fonts/STIXIntUpReg.otf'
p1543
aS'/usr/X11/lib/X11/fonts/TTF/luxirbi.ttf'
p1544
aS'/usr/X11R6/lib/X11/fonts/TTF/luximb.ttf'
p1545
aS'/Library/Fonts/Comic Sans MS Bold.ttf'
p1546
aS'/Library/Fonts/Trebuchet MS.ttf'
p1547
aS'/usr/X11/lib/X11/fonts/OTF/SyrCOMNisibin.otf'
p1548
aS'/usr/X11/lib/X11/fonts/TTF/VeraBI.ttf'
p1549
aS'/Library/Fonts/Courier New Bold.ttf'
p1550
aS'/Library/Fonts/BigCaslon.ttf'
p1551
aS'/usr/X11/lib/X11/fonts/TTF/luxisr.ttf'
p1552
aS'/usr/X11/lib/X11/fonts/OTF/SyrCOMUrhoy.otf'
p1553
aS'/Library/Fonts/Microsoft/Wingdings 2.ttf'
p1554
aS'/Library/Fonts/Ayuthaya.ttf'
p1555
aS'/Library/Fonts/Microsoft/Tw Cen MT.ttf'
p1556
aS'/Library/Fonts/AppleSDGothicNeo-SemiBold.otf'
p1557
aS'/Library/Fonts/Herculanum.ttf'
p1558
aS'/Library/Fonts/DecoTypeNaskh.ttf'
p1559
aS'/Library/Fonts/Microsoft/Wingdings.ttf'
p1560
aS'/System/Library/Fonts/Apple Braille Pinpoint 6 Dot.ttf'
p1561
aS'/Library/Fonts/\xe3\x83\x92\xe3\x83\xa9\xe3\x82\xad\xe3\x82\x99\xe3\x83\x8e\xe8\xa7\x92\xe3\x82\xb3\xe3\x82\x99 Pro W6.otf'
p1562
aS'/System/Library/Fonts/Symbol.ttf'
p1563
aS'/Library/Fonts/Microsoft/Corbel Bold.ttf'
p1564
aS'/usr/X11R6/lib/X11/fonts/TTF/luxisr.ttf'
p1565
aS'/Library/Fonts/Trebuchet MS Bold Italic.ttf'
p1566
aS'/Library/Fonts/Microsoft/Cambria Italic.ttf'
p1567
aS'/Library/Fonts/Microsoft/Arial Bold Italic.ttf'
p1568
aS'/Library/Fonts/Microsoft/MingLiU_HKSCS-ExtB.ttf'
p1569
aS'/Library/Fonts/AlBayanBold.ttf'
p1570
aS'/Library/Fonts/Wingdings 2.ttf'
p1571
aS'/Library/Fonts/HeadlineA.ttf'
p1572
aS'/Library/Fonts/Microsoft/MS Reference Specialty.ttf'
p1573
aS'/Library/Fonts/Tahoma.ttf'
p1574
aS'/Library/Fonts/Brush Script.ttf'
p1575
aS'/Library/Fonts/ArialHBBold.ttf'
p1576
aS'/System/Library/Fonts/Keyboard.ttf'
p1577
aS'/Library/Fonts/Microsoft/Gill Sans MT Bold.ttf'
p1578
aS'/Library/Fonts/\xe3\x83\x92\xe3\x83\xa9\xe3\x82\xad\xe3\x82\x99\xe3\x83\x8e\xe4\xb8\xb8\xe3\x82\xb3\xe3\x82\x99 ProN W4.otf'
p1579
aS'/Library/Fonts/Microsoft/Lucida Sans Unicode.ttf'
p1580
aS'/Library/Fonts/Microsoft/Palatino Linotype Italic.ttf'
p1581
aS'/Library/Fonts/Microsoft/Tw Cen MT Italic.ttf'
p1582
aS'/Library/Fonts/Microsoft/Palatino Linotype Bold Italic.ttf'
p1583
aS'/Library/Fonts/STIXSizOneSymReg.otf'
p1584
aS'/Library/Fonts/STIXIntUpSmReg.otf'
p1585
aS'/Library/Fonts/Andale Mono.ttf'
p1586
aS'/System/Library/Fonts/Geeza Pro.ttf'
p1587
aS'/Library/Fonts/Khmer Sangam MN.ttf'
p1588
aS'/usr/X11R6/lib/X11/fonts/TTF/luximbi.ttf'
p1589
aS'/Library/Fonts/Microsoft/Consolas Bold Italic.ttf'
p1590
aS'/Library/Fonts/Microsoft Sans Serif.ttf'
p1591
aS'/Library/Fonts/Microsoft/Meiryo.ttf'
p1592
aS'/Library/Fonts/STIXIntUpDBol.otf'
p1593
aS'/Library/Fonts/Kai.ttf'
p1594
aS'/Library/Fonts/STIXGeneral.otf'
p1595
aS'/Library/Fonts/Courier New Italic.ttf'
p1596
aS'/Library/Fonts/Microsoft/Verdana Bold Italic.ttf'
p1597
aS'/Library/Fonts/Arial Black.ttf'
p1598
aS'/Library/Fonts/Microsoft/Consolas Italic.ttf'
p1599
aS'/Library/Fonts/Microsoft/SimSun.ttf'
p1600
aS'/usr/X11/lib/X11/fonts/OTF/SyrCOMMardin.otf'
p1601
aS'/Library/Fonts/STIXGeneralItalic.otf'
p1602
aS'/Library/Fonts/Silom.ttf'
p1603
aS'/usr/X11/lib/X11/fonts/TTF/luxirr.ttf'
p1604
aS'/Library/Fonts/\xe9\x9b\x85\xe7\x97\x9e-\xe7\xae\x80.otf'
p1605
aS'/Library/Fonts/MshtakanBoldOblique.ttf'
p1606
aS'/Library/Fonts/Microsoft/taile.ttf'
p1607
aS'/System/Library/Fonts/\xe3\x83\x92\xe3\x83\xa9\xe3\x82\xad\xe3\x82\x99\xe3\x83\x8e\xe8\xa7\x92\xe3\x82\xb3\xe3\x82\x99 ProN W3.otf'
p1608
aS'/Library/Fonts/\xe5\x8d\x8e\xe6\x96\x87\xe7\xbb\x86\xe9\xbb\x91.ttf'
p1609
aS'/Library/Fonts/STIXSizFourSymReg.otf'
p1610
aS'/usr/X11R6/lib/X11/fonts/TTF/VeraSeBd.ttf'
p1611
aS'/Library/Fonts/\xe5\x8d\x8e\xe6\x96\x87\xe9\xbb\x91\xe4\xbd\x93.ttf'
p1612
aS'/Library/Fonts/Apple Chancery.ttf'
p1613
aS'/Library/Fonts/Microsoft/msyi.ttf'
p1614
aS'/System/Library/Fonts/Thonburi.ttf'
p1615
aS'/Library/Fonts/Microsoft/Calibri Italic.ttf'
p1616
aS'/usr/X11/lib/X11/fonts/TTF/Vera.ttf'
p1617
aS'/Library/Fonts/Microsoft/Candara.ttf'
p1618
aS'/Library/Fonts/Wingdings 3.ttf'
p1619
aS'/Library/Fonts/Microsoft/MingLiU.ttf'
p1620
aS'/Library/Fonts/STIXGeneralBolIta.otf'
p1621
aS'/Library/Fonts/ArialHB.ttf'
p1622
aS'/Library/Fonts/Microsoft/Wingdings 3.ttf'
p1623
aS'/Library/Fonts/STIXIntUpSmBol.otf'
p1624
aS'/Library/Fonts/Lao Sangam MN.ttf'
p1625
aS'/usr/X11R6/lib/X11/fonts/TTF/GohaTibebZemen.ttf'
p1626
aS'/Library/Fonts/KufiStandardGK.ttf'
p1627
aS'/Library/Fonts/Microsoft/Consolas.ttf'
p1628
aS'/Library/Fonts/Microsoft/Times New Roman Bold.ttf'
p1629
aS'/Library/Fonts/Microsoft/Perpetua Italic.ttf'
p1630
aS'/Library/Fonts/STIXSizOneSymBol.otf'
p1631
aS'/Library/Fonts/Microsoft/SimSun-ExtB.ttf'
p1632
aS'/Library/Fonts/Microsoft/Palatino Linotype.ttf'
p1633
aS'/Library/Fonts/Comic Sans MS.ttf'
p1634
aS'/Library/Fonts/STIXSizTwoSymReg.otf'
p1635
aS'/Library/Fonts/Hei.ttf'
p1636
aS'/Library/Fonts/Microsoft/PMingLiU.ttf'
p1637
aS'/Library/Fonts/Microsoft/Arial.ttf'
p1638
aS'/Library/Fonts/STIXSizFourSymBol.otf'
p1639
aS'/Library/Fonts/Apple LiGothic Medium.ttf'
p1640
aS'/Library/Fonts/NewPeninimMTBold.ttf'
p1641
aS'/Library/Fonts/Arial Bold.ttf'
p1642
aS'/Library/Fonts/Microsoft/Cambria Bold Italic.ttf'
p1643
aS'/Library/Fonts/Georgia Bold.ttf'
p1644
aS'/Library/Fonts/Microsoft/Gabriola.ttf'
p1645
aS'/Library/Fonts/Microsoft/Marlett.ttf'
p1646
aS'/Library/Fonts/Microsoft/Calibri Bold.ttf'
p1647
aS'/Library/Fonts/OsakaMono.ttf'
p1648
aS'/Library/Fonts/Gungseouche.ttf'
p1649
aS'/usr/X11/lib/X11/fonts/OTF/SyrCOMJerusalemItalic.otf'
p1650
aS'/usr/X11/lib/X11/fonts/TTF/luxisri.ttf'
p1651
aS'/usr/X11R6/lib/X11/fonts/TTF/luxisri.ttf'
p1652
aS'/System/Library/Fonts/Apple Braille Pinpoint 8 Dot.ttf'
p1653
aS'/Library/Fonts/STIXSizTwoSymBol.otf'
p1654
aS'/Library/Fonts/Wingdings.ttf'
p1655
aS'/usr/X11/lib/X11/fonts/OTF/SyrCOMBatnan.otf'
p1656
aS'/Library/Fonts/Impact.ttf'
p1657
aS'/System/Library/Fonts/Apple Braille Outline 6 Dot.ttf'
p1658
aS'/Library/Fonts/Tahoma Bold.ttf'
p1659
aS'/Library/Fonts/STIXNonUniBol.otf'
p1660
aS'/Library/Fonts/Georgia Bold Italic.ttf'
p1661
aS'/usr/X11/lib/X11/fonts/TTF/VeraMoBI.ttf'
p1662
aS'/Library/Fonts/STIXIntUpDReg.otf'
p1663
aS'/Library/Fonts/Sathu.ttf'
p1664
aS'/usr/X11R6/lib/X11/fonts/TTF/luximri.ttf'
p1665
aS'/Library/Fonts/GujaratiMT.ttf'
p1666
aS'/Library/Fonts/Microsoft/Gill Sans MT Bold Italic.ttf'
p1667
aS'/Library/Fonts/Microsoft/Consolas Bold.ttf'
p1668
aS'/Library/Fonts/AppleSDGothicNeo-Medium.otf'
p1669
aS'/usr/X11/lib/X11/fonts/TTF/luximr.ttf'
p1670
asS'_FontManager__default_weight'
p1671
g13
sS'_version'
p1672
I7
sS'ttf_lookup_cache'
p1673
(dp1674
sS'default_size'
p1675
NsS'defaultFont'
p1676
(dp1677
g1296
Nsg1298
g1307
ssS'afmfiles'
p1678
(lp1679
S'/opt/epd/lib/python2.7/site-packages/matplotlib/mpl-data/fonts/pdfcorefonts/Times-Italic.afm'
p1680
aS'/opt/epd/lib/python2.7/site-packages/matplotlib/mpl-data/fonts/afm/pcrb8a.afm'
p1681
aS'/opt/epd/lib/python2.7/site-packages/matplotlib/mpl-data/fonts/afm/pncri8a.afm'
p1682
aS'/opt/epd/lib/python2.7/site-packages/matplotlib/mpl-data/fonts/afm/pncr8a.afm'
p1683
aS'/opt/epd/lib/python2.7/site-packages/matplotlib/mpl-data/fonts/pdfcorefonts/Courier-Bold.afm'
p1684
aS'/opt/epd/lib/python2.7/site-packages/matplotlib/mpl-data/fonts/afm/putb8a.afm'
p1685
aS'/opt/epd/lib/python2.7/site-packages/matplotlib/mpl-data/fonts/pdfcorefonts/Times-BoldItalic.afm'
p1686
aS'/opt/epd/lib/python2.7/site-packages/matplotlib/mpl-data/fonts/afm/ptmb8a.afm'
p1687
aS'/opt/epd/lib/python2.7/site-packages/matplotlib/mpl-data/fonts/afm/phvb8a.afm'
p1688
aS'/opt/epd/lib/python2.7/site-packages/matplotlib/mpl-data/fonts/afm/ptmri8a.afm'
p1689
aS'/opt/epd/lib/python2.7/site-packages/matplotlib/mpl-data/fonts/afm/pplbi8a.afm'
p1690
aS'/opt/epd/lib/python2.7/site-packages/matplotlib/mpl-data/fonts/afm/putr8a.afm'
p1691
aS'/opt/epd/lib/python2.7/site-packages/matplotlib/mpl-data/fonts/afm/phvro8an.afm'
p1692
aS'/opt/epd/lib/python2.7/site-packages/matplotlib/mpl-data/fonts/afm/pplb8a.afm'
p1693
aS'/opt/epd/lib/python2.7/site-packages/matplotlib/mpl-data/fonts/afm/phvb8an.afm'
p1694
aS'/opt/epd/lib/python2.7/site-packages/matplotlib/mpl-data/fonts/afm/ptmr8a.afm'
p1695
aS'/opt/epd/lib/python2.7/site-packages/matplotlib/mpl-data/fonts/pdfcorefonts/Courier-BoldOblique.afm'
p1696
aS'/opt/epd/lib/python2.7/site-packages/matplotlib/mpl-data/fonts/afm/ptmbi8a.afm'
p1697
aS'/opt/epd/lib/python2.7/site-packages/matplotlib/mpl-data/fonts/afm/pbkdi8a.afm'
p1698
aS'/opt/epd/lib/python2.7/site-packages/matplotlib/mpl-data/fonts/afm/pplr8a.afm'
p1699
aS'/opt/epd/lib/python2.7/site-packages/matplotlib/mpl-data/fonts/pdfcorefonts/Times-Bold.afm'
p1700
aS'/opt/epd/lib/python2.7/site-packages/matplotlib/mpl-data/fonts/afm/pbkd8a.afm'
p1701
aS'/opt/epd/lib/python2.7/site-packages/matplotlib/mpl-data/fonts/afm/phvbo8a.afm'
p1702
aS'/opt/epd/lib/python2.7/site-packages/matplotlib/mpl-data/fonts/pdfcorefonts/Times-Roman.afm'
p1703
aS'/opt/epd/lib/python2.7/site-packages/matplotlib/mpl-data/fonts/afm/phvl8a.afm'
p1704
aS'/opt/epd/lib/python2.7/site-packages/matplotlib/mpl-data/fonts/pdfcorefonts/Courier.afm'
p1705
aS'/opt/epd/lib/python2.7/site-packages/matplotlib/mpl-data/fonts/afm/pplri8a.afm'
p1706
aS'/opt/epd/lib/python2.7/site-packages/matplotlib/mpl-data/fonts/pdfcorefonts/Helvetica-Bold.afm'
p1707
aS'/opt/epd/lib/python2.7/site-packages/matplotlib/mpl-data/fonts/afm/phvro8a.afm'
p1708
aS'/opt/epd/lib/python2.7/site-packages/matplotlib/mpl-data/fonts/afm/putbi8a.afm'
p1709
aS'/opt/epd/lib/python2.7/site-packages/matplotlib/mpl-data/fonts/afm/phvr8a.afm'
p1710
aS'/opt/epd/lib/python2.7/site-packages/matplotlib/mpl-data/fonts/afm/pagko8a.afm'
p1711
aS'/opt/epd/lib/python2.7/site-packages/matplotlib/mpl-data/fonts/afm/cmsy10.afm'
p1712
aS'/opt/epd/lib/python2.7/site-packages/matplotlib/mpl-data/fonts/afm/psyr.afm'
p1713
aS'/opt/epd/lib/python2.7/site-packages/matplotlib/mpl-data/fonts/afm/pzcmi8a.afm'
p1714
aS'/opt/epd/lib/python2.7/site-packages/matplotlib/mpl-data/fonts/afm/phvlo8a.afm'
p1715
aS'/opt/epd/lib/python2.7/site-packages/matplotlib/mpl-data/fonts/afm/pcrr8a.afm'
p1716
aS'/opt/epd/lib/python2.7/site-packages/matplotlib/mpl-data/fonts/afm/pagd8a.afm'
p1717
aS'/opt/epd/lib/python2.7/site-packages/matplotlib/mpl-data/fonts/pdfcorefonts/Helvetica.afm'
p1718
aS'/opt/epd/lib/python2.7/site-packages/matplotlib/mpl-data/fonts/afm/pbkli8a.afm'
p1719
aS'/opt/epd/lib/python2.7/site-packages/matplotlib/mpl-data/fonts/pdfcorefonts/Symbol.afm'
p1720
aS'/opt/epd/lib/python2.7/site-packages/matplotlib/mpl-data/fonts/afm/pcrro8a.afm'
p1721
aS'/opt/epd/lib/python2.7/site-packages/matplotlib/mpl-data/fonts/afm/pncb8a.afm'
p1722
aS'/opt/epd/lib/python2.7/site-packages/matplotlib/mpl-data/fonts/pdfcorefonts/Helvetica-BoldOblique.afm'
p1723
aS'/opt/epd/lib/python2.7/site-packages/matplotlib/mpl-data/fonts/afm/pzdr.afm'
p1724
aS'/opt/epd/lib/python2.7/site-packages/matplotlib/mpl-data/fonts/afm/cmtt10.afm'
p1725
aS'/opt/epd/lib/python2.7/site-packages/matplotlib/mpl-data/fonts/afm/pagk8a.afm'
p1726
aS'/opt/epd/lib/python2.7/site-packages/matplotlib/mpl-data/fonts/afm/pagdo8a.afm'
p1727
aS'/opt/epd/lib/python2.7/site-packages/matplotlib/mpl-data/fonts/afm/cmex10.afm'
p1728
aS'/opt/epd/lib/python2.7/site-packages/matplotlib/mpl-data/fonts/afm/cmr10.afm'
p1729
aS'/opt/epd/lib/python2.7/site-packages/matplotlib/mpl-data/fonts/pdfcorefonts/Helvetica-Oblique.afm'
p1730
aS'/opt/epd/lib/python2.7/site-packages/matplotlib/mpl-data/fonts/afm/pcrbo8a.afm'
p1731
aS'/opt/epd/lib/python2.7/site-packages/matplotlib/mpl-data/fonts/pdfcorefonts/ZapfDingbats.afm'
p1732
aS'/opt/epd/lib/python2.7/site-packages/matplotlib/mpl-data/fonts/afm/phvbo8an.afm'
p1733
aS'/opt/epd/lib/python2.7/site-packages/matplotlib/mpl-data/fonts/afm/phvr8an.afm'
p1734
aS'/opt/epd/lib/python2.7/site-packages/matplotlib/mpl-data/fonts/afm/pncbi8a.afm'
p1735
aS'/opt/epd/lib/python2.7/site-packages/matplotlib/mpl-data/fonts/afm/putri8a.afm'
p1736
aS'/opt/epd/lib/python2.7/site-packages/matplotlib/mpl-data/fonts/afm/cmmi10.afm'
p1737
aS'/opt/epd/lib/python2.7/site-packages/matplotlib/mpl-data/fonts/pdfcorefonts/Courier-Oblique.afm'
p1738
aS'/opt/epd/lib/python2.7/site-packages/matplotlib/mpl-data/fonts/afm/pbkl8a.afm'
p1739
aS'/usr/X11/lib/X11/fonts/Type1/UTB_____.afm'
p1740
aS'/usr/X11/lib/X11/fonts/Type1/c0583bt_.afm'
p1741
aS'/usr/X11/lib/X11/fonts/Type1/l049036t.afm'
p1742
aS'/usr/X11/lib/X11/fonts/Type1/c0649bt_.afm'
p1743
aS'/usr/X11/lib/X11/fonts/Type1/UTRG____.afm'
p1744
aS'/usr/X11/lib/X11/fonts/Type1/c0582bt_.afm'
p1745
aS'/usr/X11/lib/X11/fonts/Type1/c0648bt_.afm'
p1746
aS'/usr/X11/lib/X11/fonts/Type1/c0633bt_.afm'
p1747
aS'/usr/X11/lib/X11/fonts/Type1/l048013t.afm'
p1748
aS'/usr/X11/lib/X11/fonts/Type1/courb.afm'
p1749
aS'/usr/X11/lib/X11/fonts/Type1/c0419bt_.afm'
p1750
aS'/usr/X11/lib/X11/fonts/Type1/UTI_____.afm'
p1751
aS'/usr/X11/lib/X11/fonts/Type1/l049016t.afm'
p1752
aS'/usr/X11/lib/X11/fonts/Type1/l048033t.afm'
p1753
aS'/usr/X11/lib/X11/fonts/Type1/l048016t.afm'
p1754
aS'/usr/X11/lib/X11/fonts/Type1/l048036t.afm'
p1755
aS'/usr/X11/lib/X11/fonts/Type1/courbi.afm'
p1756
aS'/usr/X11/lib/X11/fonts/Type1/c0632bt_.afm'
p1757
aS'/usr/X11/lib/X11/fonts/Type1/l049013t.afm'
p1758
aS'/usr/X11/lib/X11/fonts/Type1/c0611bt_.afm'
p1759
aS'/usr/X11/lib/X11/fonts/Type1/l047036t.afm'
p1760
aS'/usr/X11/lib/X11/fonts/Type1/l047016t.afm'
p1761
aS'/usr/X11/lib/X11/fonts/Type1/l047033t.afm'
p1762
aS'/usr/X11/lib/X11/fonts/Type1/l047013t.afm'
p1763
aS'/usr/X11/lib/X11/fonts/Type1/l049033t.afm'
p1764
aS'/usr/X11/lib/X11/fonts/Type1/UTBI____.afm'
p1765
aS'/usr/X11/lib/X11/fonts/Type1/cour.afm'
p1766
aS'/usr/X11/lib/X11/fonts/Type1/couri.afm'
p1767
asS'afmlist'
p1768
(lp1769
g7
(g8
g9
NtRp1770
(dp1771
g12
g62
sg14
S'Times'
p1772
sg16
I500
sg17
g13
sg18
g13
sg19
g1680
sg21
g22
sbag7
(g8
g9
NtRp1773
(dp1774
g12
g13
sg14
S'Courier'
p1775
sg16
I700
sg17
g13
sg18
g13
sg19
g1681
sg21
g22
sbag7
(g8
g9
NtRp1776
(dp1777
g12
g62
sg14
S'New Century Schoolbook'
p1778
sg16
I500
sg17
g13
sg18
g13
sg19
g1682
sg21
g22
sbag7
(g8
g9
NtRp1779
(dp1780
g12
g13
sg14
S'New Century Schoolbook'
p1781
sg16
I500
sg17
g13
sg18
g13
sg19
g1683
sg21
g22
sbag7
(g8
g9
NtRp1782
(dp1783
g12
g13
sg14
S'Courier'
p1784
sg16
I700
sg17
g13
sg18
g13
sg19
g1684
sg21
g22
sbag7
(g8
g9
NtRp1785
(dp1786
g12
g13
sg14
S'Utopia'
p1787
sg16
I700
sg17
g13
sg18
g13
sg19
g1685
sg21
g22
sbag7
(g8
g9
NtRp1788
(dp1789
g12
g62
sg14
S'Times'
p1790
sg16
I700
sg17
g13
sg18
g13
sg19
g1686
sg21
g22
sbag7
(g8
g9
NtRp1791
(dp1792
g12
g13
sg14
S'Times'
p1793
sg16
I700
sg17
g13
sg18
g13
sg19
g1687
sg21
g22
sbag7
(g8
g9
NtRp1794
(dp1795
g12
g13
sg14
S'Helvetica'
p1796
sg16
I700
sg17
g13
sg18
g13
sg19
g1688
sg21
g22
sbag7
(g8
g9
NtRp1797
(dp1798
g12
g62
sg14
S'Times'
p1799
sg16
I500
sg17
g13
sg18
g13
sg19
g1689
sg21
g22
sbag7
(g8
g9
NtRp1800
(dp1801
g12
g62
sg14
S'Palatino'
p1802
sg16
I700
sg17
g13
sg18
g13
sg19
g1690
sg21
g22
sbag7
(g8
g9
NtRp1803
(dp1804
g12
g13
sg14
S'Utopia'
p1805
sg16
I400
sg17
g13
sg18
g13
sg19
g1691
sg21
g22
sbag7
(g8
g9
NtRp1806
(dp1807
g12
g62
sg14
S'Helvetica'
p1808
sg16
I500
sg17
g284
sg18
g13
sg19
g1692
sg21
g22
sbag7
(g8
g9
NtRp1809
(dp1810
g12
g13
sg14
S'Palatino'
p1811
sg16
I700
sg17
g13
sg18
g13
sg19
g1693
sg21
g22
sbag7
(g8
g9
NtRp1812
(dp1813
g12
g13
sg14
S'Helvetica'
p1814
sg16
I700
sg17
g284
sg18
g13
sg19
g1694
sg21
g22
sbag7
(g8
g9
NtRp1815
(dp1816
g12
g13
sg14
S'Times'
p1817
sg16
I500
sg17
g13
sg18
g13
sg19
g1695
sg21
g22
sbag7
(g8
g9
NtRp1818
(dp1819
g12
g62
sg14
S'Courier'
p1820
sg16
I700
sg17
g13
sg18
g13
sg19
g1696
sg21
g22
sbag7
(g8
g9
NtRp1821
(dp1822
g12
g62
sg14
S'Times'
p1823
sg16
I700
sg17
g13
sg18
g13
sg19
g1697
sg21
g22
sbag7
(g8
g9
NtRp1824
(dp1825
g12
g62
sg14
S'ITC Bookman'
p1826
sg16
I600
sg17
g13
sg18
g13
sg19
g1698
sg21
g22
sbag7
(g8
g9
NtRp1827
(dp1828
g12
g13
sg14
S'Palatino'
p1829
sg16
I500
sg17
g13
sg18
g13
sg19
g1699
sg21
g22
sbag7
(g8
g9
NtRp1830
(dp1831
g12
g13
sg14
S'Times'
p1832
sg16
I700
sg17
g13
sg18
g13
sg19
g1700
sg21
g22
sbag7
(g8
g9
NtRp1833
(dp1834
g12
g13
sg14
S'ITC Bookman'
p1835
sg16
I600
sg17
g13
sg18
g13
sg19
g1701
sg21
g22
sbag7
(g8
g9
NtRp1836
(dp1837
g12
g62
sg14
S'Helvetica'
p1838
sg16
I700
sg17
g13
sg18
g13
sg19
g1702
sg21
g22
sbag7
(g8
g9
NtRp1839
(dp1840
g12
g13
sg14
S'Times'
p1841
sg16
I500
sg17
g13
sg18
g13
sg19
g1703
sg21
g22
sbag7
(g8
g9
NtRp1842
(dp1843
g12
g13
sg14
S'Helvetica'
p1844
sg16
I200
sg17
g13
sg18
g13
sg19
g1704
sg21
g22
sbag7
(g8
g9
NtRp1845
(dp1846
g12
g13
sg14
S'Courier'
p1847
sg16
I500
sg17
g13
sg18
g13
sg19
g1705
sg21
g22
sbag7
(g8
g9
NtRp1848
(dp1849
g12
g62
sg14
S'Palatino'
p1850
sg16
I500
sg17
g13
sg18
g13
sg19
g1706
sg21
g22
sbag7
(g8
g9
NtRp1851
(dp1852
g12
g13
sg14
S'Helvetica'
p1853
sg16
I700
sg17
g13
sg18
g13
sg19
g1707
sg21
g22
sbag7
(g8
g9
NtRp1854
(dp1855
g12
g62
sg14
S'Helvetica'
p1856
sg16
I500
sg17
g13
sg18
g13
sg19
g1708
sg21
g22
sbag7
(g8
g9
NtRp1857
(dp1858
g12
g62
sg14
S'Utopia'
p1859
sg16
I700
sg17
g13
sg18
g13
sg19
g1709
sg21
g22
sbag7
(g8
g9
NtRp1860
(dp1861
g12
g13
sg14
S'Helvetica'
p1862
sg16
I500
sg17
g13
sg18
g13
sg19
g1710
sg21
g22
sbag7
(g8
g9
NtRp1863
(dp1864
g12
g62
sg14
S'ITC Avant Garde Gothic'
p1865
sg16
I400
sg17
g13
sg18
g13
sg19
g1711
sg21
g22
sbag7
(g8
g9
NtRp1866
(dp1867
g12
g62
sg14
S'Computer Modern'
p1868
sg16
I500
sg17
g13
sg18
g13
sg19
g1712
sg21
g22
sbag7
(g8
g9
NtRp1869
(dp1870
g12
g13
sg14
S'Symbol'
p1871
sg16
I500
sg17
g13
sg18
g13
sg19
g1713
sg21
g22
sbag7
(g8
g9
NtRp1872
(dp1873
g12
g62
sg14
S'ITC Zapf Chancery'
p1874
sg16
I500
sg17
g13
sg18
g13
sg19
g1714
sg21
g22
sbag7
(g8
g9
NtRp1875
(dp1876
g12
g62
sg14
S'Helvetica'
p1877
sg16
I200
sg17
g13
sg18
g13
sg19
g1715
sg21
g22
sbag7
(g8
g9
NtRp1878
(dp1879
g12
g13
sg14
S'Courier'
p1880
sg16
I500
sg17
g13
sg18
g13
sg19
g1716
sg21
g22
sbag7
(g8
g9
NtRp1881
(dp1882
g12
g13
sg14
S'ITC Avant Garde Gothic'
p1883
sg16
I600
sg17
g13
sg18
g13
sg19
g1717
sg21
g22
sbag7
(g8
g9
NtRp1884
(dp1885
g12
g13
sg14
S'Helvetica'
p1886
sg16
I500
sg17
g13
sg18
g13
sg19
g1718
sg21
g22
sbag7
(g8
g9
NtRp1887
(dp1888
g12
g62
sg14
S'ITC Bookman'
p1889
sg16
I200
sg17
g13
sg18
g13
sg19
g1719
sg21
g22
sbag7
(g8
g9
NtRp1890
(dp1891
g12
g13
sg14
S'Symbol'
p1892
sg16
I500
sg17
g13
sg18
g13
sg19
g1720
sg21
g22
sbag7
(g8
g9
NtRp1893
(dp1894
g12
g62
sg14
S'Courier'
p1895
sg16
I500
sg17
g13
sg18
g13
sg19
g1721
sg21
g22
sbag7
(g8
g9
NtRp1896
(dp1897
g12
g13
sg14
S'New Century Schoolbook'
p1898
sg16
I700
sg17
g13
sg18
g13
sg19
g1722
sg21
g22
sbag7
(g8
g9
NtRp1899
(dp1900
g12
g62
sg14
S'Helvetica'
p1901
sg16
I700
sg17
g13
sg18
g13
sg19
g1723
sg21
g22
sbag7
(g8
g9
NtRp1902
(dp1903
g12
g13
sg14
S'ITC Zapf Dingbats'
p1904
sg16
I500
sg17
g13
sg18
g13
sg19
g1724
sg21
g22
sbag7
(g8
g9
NtRp1905
(dp1906
g12
g13
sg14
S'Computer Modern'
p1907
sg16
I500
sg17
g13
sg18
g13
sg19
g1725
sg21
g22
sbag7
(g8
g9
NtRp1908
(dp1909
g12
g13
sg14
S'ITC Avant Garde Gothic'
p1910
sg16
I400
sg17
g13
sg18
g13
sg19
g1726
sg21
g22
sbag7
(g8
g9
NtRp1911
(dp1912
g12
g62
sg14
S'ITC Avant Garde Gothic'
p1913
sg16
I600
sg17
g13
sg18
g13
sg19
g1727
sg21
g22
sbag7
(g8
g9
NtRp1914
(dp1915
g12
g13
sg14
S'Computer Modern'
p1916
sg16
I500
sg17
g13
sg18
g13
sg19
g1728
sg21
g22
sbag7
(g8
g9
NtRp1917
(dp1918
g12
g13
sg14
S'Computer Modern'
p1919
sg16
I500
sg17
g13
sg18
g13
sg19
g1729
sg21
g22
sbag7
(g8
g9
NtRp1920
(dp1921
g12
g62
sg14
S'Helvetica'
p1922
sg16
I500
sg17
g13
sg18
g13
sg19
g1730
sg21
g22
sbag7
(g8
g9
NtRp1923
(dp1924
g12
g62
sg14
S'Courier'
p1925
sg16
I700
sg17
g13
sg18
g13
sg19
g1731
sg21
g22
sbag7
(g8
g9
NtRp1926
(dp1927
g12
g13
sg14
S'ZapfDingbats'
p1928
sg16
I500
sg17
g13
sg18
g13
sg19
g1732
sg21
g22
sbag7
(g8
g9
NtRp1929
(dp1930
g12
g62
sg14
S'Helvetica'
p1931
sg16
I700
sg17
g284
sg18
g13
sg19
g1733
sg21
g22
sbag7
(g8
g9
NtRp1932
(dp1933
g12
g13
sg14
S'Helvetica'
p1934
sg16
I500
sg17
g284
sg18
g13
sg19
g1734
sg21
g22
sbag7
(g8
g9
NtRp1935
(dp1936
g12
g62
sg14
S'New Century Schoolbook'
p1937
sg16
I700
sg17
g13
sg18
g13
sg19
g1735
sg21
g22
sbag7
(g8
g9
NtRp1938
(dp1939
g12
g62
sg14
S'Utopia'
p1940
sg16
I400
sg17
g13
sg18
g13
sg19
g1736
sg21
g22
sbag7
(g8
g9
NtRp1941
(dp1942
g12
g62
sg14
S'Computer Modern'
p1943
sg16
I500
sg17
g13
sg18
g13
sg19
g1737
sg21
g22
sbag7
(g8
g9
NtRp1944
(dp1945
g12
g62
sg14
S'Courier'
p1946
sg16
I500
sg17
g13
sg18
g13
sg19
g1738
sg21
g22
sbag7
(g8
g9
NtRp1947
(dp1948
g12
g13
sg14
S'ITC Bookman'
p1949
sg16
I200
sg17
g13
sg18
g13
sg19
g1739
sg21
g22
sbag7
(g8
g9
NtRp1950
(dp1951
g12
g13
sg14
S'Utopia'
p1952
sg16
I700
sg17
g13
sg18
g13
sg19
g1740
sg21
g22
sbag7
(g8
g9
NtRp1953
(dp1954
g12
g13
sg14
S'Courier 10 Pitch'
p1955
sg16
I700
sg17
g13
sg18
g13
sg19
g1741
sg21
g22
sbag7
(g8
g9
NtRp1956
(dp1957
g12
g62
sg14
S'Luxi Serif'
p1958
sg16
I700
sg17
g13
sg18
g13
sg19
g1742
sg21
g22
sbag7
(g8
g9
NtRp1959
(dp1960
g12
g62
sg14
S'Bitstream Charter'
p1961
sg16
I400
sg17
g13
sg18
g13
sg19
g1743
sg21
g22
sbag7
(g8
g9
NtRp1962
(dp1963
g12
g13
sg14
S'Utopia'
p1964
sg16
I400
sg17
g13
sg18
g13
sg19
g1744
sg21
g22
sbag7
(g8
g9
NtRp1965
(dp1966
g12
g62
sg14
S'Courier 10 Pitch'
p1967
sg16
I400
sg17
g13
sg18
g13
sg19
g1745
sg21
g22
sbag7
(g8
g9
NtRp1968
(dp1969
g12
g13
sg14
S'Bitstream Charter'
p1970
sg16
I400
sg17
g13
sg18
g13
sg19
g1746
sg21
g22
sbag7
(g8
g9
NtRp1971
(dp1972
g12
g62
sg14
S'Bitstream Charter'
p1973
sg16
I700
sg17
g13
sg18
g13
sg19
g1747
sg21
g22
sbag7
(g8
g9
NtRp1974
(dp1975
g12
g13
sg14
S'Luxi Sans'
p1976
sg16
I400
sg17
g13
sg18
g13
sg19
g1748
sg21
g22
sbag7
(g8
g9
NtRp1977
(dp1978
g12
g13
sg14
S'Courier'
p1979
sg16
I700
sg17
g13
sg18
g13
sg19
g1749
sg21
g22
sbag7
(g8
g9
NtRp1980
(dp1981
g12
g13
sg14
S'Courier 10 Pitch'
p1982
sg16
I400
sg17
g13
sg18
g13
sg19
g1750
sg21
g22
sbag7
(g8
g9
NtRp1983
(dp1984
g12
g62
sg14
S'Utopia'
p1985
sg16
I400
sg17
g13
sg18
g13
sg19
g1751
sg21
g22
sbag7
(g8
g9
NtRp1986
(dp1987
g12
g13
sg14
S'Luxi Serif'
p1988
sg16
I700
sg17
g13
sg18
g13
sg19
g1752
sg21
g22
sbag7
(g8
g9
NtRp1989
(dp1990
g12
g62
sg14
S'Luxi Sans'
p1991
sg16
I400
sg17
g13
sg18
g13
sg19
g1753
sg21
g22
sbag7
(g8
g9
NtRp1992
(dp1993
g12
g13
sg14
S'Luxi Sans'
p1994
sg16
I700
sg17
g13
sg18
g13
sg19
g1754
sg21
g22
sbag7
(g8
g9
NtRp1995
(dp1996
g12
g62
sg14
S'Luxi Sans'
p1997
sg16
I700
sg17
g13
sg18
g13
sg19
g1755
sg21
g22
sbag7
(g8
g9
NtRp1998
(dp1999
g12
g62
sg14
S'Courier'
p2000
sg16
I700
sg17
g13
sg18
g13
sg19
g1756
sg21
g22
sbag7
(g8
g9
NtRp2001
(dp2002
g12
g13
sg14
S'Bitstream Charter'
p2003
sg16
I700
sg17
g13
sg18
g13
sg19
g1757
sg21
g22
sbag7
(g8
g9
NtRp2004
(dp2005
g12
g13
sg14
S'Luxi Serif'
p2006
sg16
I400
sg17
g13
sg18
g13
sg19
g1758
sg21
g22
sbag7
(g8
g9
NtRp2007
(dp2008
g12
g62
sg14
S'Courier 10 Pitch'
p2009
sg16
I700
sg17
g13
sg18
g13
sg19
g1759
sg21
g22
sbag7
(g8
g9
NtRp2010
(dp2011
g12
g62
sg14
S'Luxi Mono'
p2012
sg16
I700
sg17
g13
sg18
g13
sg19
g1760
sg21
g22
sbag7
(g8
g9
NtRp2013
(dp2014
g12
g13
sg14
S'Luxi Mono'
p2015
sg16
I700
sg17
g13
sg18
g13
sg19
g1761
sg21
g22
sbag7
(g8
g9
NtRp2016
(dp2017
g12
g62
sg14
S'Luxi Mono'
p2018
sg16
I400
sg17
g13
sg18
g13
sg19
g1762
sg21
g22
sbag7
(g8
g9
NtRp2019
(dp2020
g12
g13
sg14
S'Luxi Mono'
p2021
sg16
I400
sg17
g13
sg18
g13
sg19
g1763
sg21
g22
sbag7
(g8
g9
NtRp2022
(dp2023
g12
g62
sg14
S'Luxi Serif'
p2024
sg16
I400
sg17
g13
sg18
g13
sg19
g1764
sg21
g22
sbag7
(g8
g9
NtRp2025
(dp2026
g12
g62
sg14
S'Utopia'
p2027
sg16
I700
sg17
g13
sg18
g13
sg19
g1765
sg21
g22
sbag7
(g8
g9
NtRp2028
(dp2029
g12
g13
sg14
S'Courier'
p2030
sg16
I400
sg17
g13
sg18
g13
sg19
g1766
sg21
g22
sbag7
(g8
g9
NtRp2031
(dp2032
g12
g62
sg14
S'Courier'
p2033
sg16
I400
sg17
g13
sg18
g13
sg19
g1767
sg21
g22
sbasb.