(dp1
S'Arial Unicode MS'
p2
(dp3
S'normal'
p4
(dp5
g4
(dp6
I400
(dp7
g4
(dp8
S'scalable'
p9
S'/Library/Fonts/Arial Unicode.ttf'
p10
ssssssS'cmsy10'
p11
(dp12
g4
(dp13
g4
(dp14
I400
(dp15
g4
(dp16
g9
S'/Users/tjfulle/Local/darwin/viz/CEI/apex22/machines/apple_10.5/python251-x11/lib/python2.5/site-packages/matplotlib/mpl-data/cmsy10.ttf'
p17
ssssssS'Arial'
p18
(dp19
S'italic'
p20
(dp21
g4
(dp22
I400
(dp23
g4
(dp24
g9
S'/Library/Fonts/Microsoft/Arial Italic.ttf'
p25
sssI700
(dp26
g4
(dp27
g9
S'/Library/Fonts/Microsoft/Arial Bold Italic.ttf'
p28
sssssg4
(dp29
g4
(dp30
I400
(dp31
g4
(dp32
g9
S'/Library/Fonts/Microsoft/Arial.ttf'
p33
sssI700
(dp34
g4
(dp35
g9
S'/Library/Fonts/Microsoft/Arial Bold.ttf'
p36
ssssssS'Calibri'
p37
(dp38
g20
(dp39
g4
(dp40
I400
(dp41
g4
(dp42
g9
S'/Library/Fonts/Microsoft/Calibri Italic.ttf'
p43
sssI700
(dp44
g4
(dp45
g9
S'/Library/Fonts/Microsoft/Calibri Bold Italic.ttf'
p46
sssssg4
(dp47
g4
(dp48
I400
(dp49
g4
(dp50
g9
S'/Library/Fonts/Microsoft/Calibri.ttf'
p51
sssI700
(dp52
g4
(dp53
g9
S'/Library/Fonts/Microsoft/Calibri Bold.ttf'
p54
ssssssS'Helvetica'
p55
(dp56
S'oblique'
p57
(dp58
g4
(dp59
I200
(dp60
g4
(dp61
g9
S'/System/Library/Fonts/HelveticaLightItalic.ttf'
p62
sssssg4
(dp63
g4
(dp64
I200
(dp65
g4
(dp66
g9
S'/System/Library/Fonts/HelveticaLight.ttf'
p67
sssI400
(dp68
g4
(dp69
g9
S'/System/Library/Fonts/Helvetica.dfont'
p70
ssssssS'Verdana'
p71
(dp72
g20
(dp73
g4
(dp74
I400
(dp75
g4
(dp76
g9
S'/Library/Fonts/Microsoft/Verdana Italic.ttf'
p77
sssI700
(dp78
g4
(dp79
g9
S'/Library/Fonts/Microsoft/Verdana Bold Italic.ttf'
p80
sssssg4
(dp81
g4
(dp82
I400
(dp83
g4
(dp84
g9
S'/Library/Fonts/Microsoft/Verdana.ttf'
p85
sssI700
(dp86
g4
(dp87
g9
S'/Library/Fonts/Microsoft/Verdana Bold.ttf'
p88
ssssssS'????'
p89
(dp90
g4
(dp91
g4
(dp92
I400
(dp93
g4
(dp94
g9
S'/Library/Fonts/Microsoft/MS Mincho.ttf'
p95
ssssssS'BiauKai'
p96
(dp97
g4
(dp98
g4
(dp99
I400
(dp100
g4
(dp101
g9
S'/Library/Fonts/BiauKai.ttf'
p102
ssssssS'Hoefler Text'
p103
(dp104
g4
(dp105
g4
(dp106
I400
(dp107
g4
(dp108
g9
S'/Library/Fonts/Hoefler Text.ttc'
p109
ssssssS'Optima'
p110
(dp111
g4
(dp112
g4
(dp113
I400
(dp114
g4
(dp115
g9
S'/Library/Fonts/Optima.ttc'
p116
ssssssS'Chalkduster'
p117
(dp118
g4
(dp119
g4
(dp120
I400
(dp121
g4
(dp122
g9
S'/Library/Fonts/Chalkduster.ttf'
p123
ssssssS'?????'
p124
(dp125
g4
(dp126
g4
(dp127
I400
(dp128
g4
(dp129
g9
S'/Library/Fonts/Microsoft/MS PGothic.ttf'
p130
ssssssS'Webdings'
p131
(dp132
g4
(dp133
g4
(dp134
I400
(dp135
g4
(dp136
g9
S'/Library/Fonts/Webdings.ttf'
p137
ssssssS'HeadLineA'
p138
(dp139
g4
(dp140
g4
(dp141
I400
(dp142
g4
(dp143
g9
S'/Library/Fonts/HeadlineA.ttf'
p144
ssssssS'Hiragino Mincho ProN'
p145
(dp146
g4
(dp147
g4
(dp148
I400
(dp149
g4
(dp150
g9
S'/System/Library/Fonts/\xe3\x83\x92\xe3\x83\xa9\xe3\x82\xad\xe3\x82\x99\xe3\x83\x8e\xe6\x98\x8e\xe6\x9c\x9d ProN W3.otf'
p151
sssI700
(dp152
g4
(dp153
g9
S'/System/Library/Fonts/\xe3\x83\x92\xe3\x83\xa9\xe3\x82\xad\xe3\x82\x99\xe3\x83\x8e\xe6\x98\x8e\xe6\x9c\x9d ProN W6.otf'
p154
ssssssS'Luxi Mono'
p155
(dp156
g57
(dp157
g4
(dp158
I400
(dp159
g4
(dp160
g9
S'/usr/X11R6/lib/X11/fonts/TTF/luximri.ttf'
p161
sssI700
(dp162
g4
(dp163
g9
S'/usr/X11R6/lib/X11/fonts/TTF/luximbi.ttf'
p164
sssssg4
(dp165
g4
(dp166
I400
(dp167
g4
(dp168
g9
S'/usr/X11R6/lib/X11/fonts/TTF/luximr.ttf'
p169
sssI700
(dp170
g4
(dp171
g9
S'/usr/X11R6/lib/X11/fonts/TTF/luximb.ttf'
p172
ssssssS'Perpetua'
p173
(dp174
g20
(dp175
g4
(dp176
I400
(dp177
g4
(dp178
g9
S'/Library/Fonts/Microsoft/Perpetua Italic.ttf'
p179
sssI700
(dp180
g4
(dp181
g9
S'/Library/Fonts/Microsoft/Perpetua Bold Italic.ttf'
p182
sssssg4
(dp183
g4
(dp184
I400
(dp185
g4
(dp186
g9
S'/Library/Fonts/Microsoft/Perpetua.ttf'
p187
sssI700
(dp188
g4
(dp189
g9
S'/Library/Fonts/Microsoft/Perpetua Bold.ttf'
p190
ssssssS'Helvetica Neue'
p191
(dp192
g4
(dp193
g4
(dp194
I400
(dp195
g4
(dp196
g9
S'/System/Library/Fonts/HelveticaNeue.ttc'
p197
sssI700
(dp198
g4
(dp199
g9
S'/System/Library/Fonts/HelveticaNeue.dfont'
p200
ssssssS'Batang'
p201
(dp202
g4
(dp203
g4
(dp204
I400
(dp205
g4
(dp206
g9
S'/Library/Fonts/Microsoft/Batang.ttf'
p207
ssssssS'LiHei Pro'
p208
(dp209
g4
(dp210
g4
(dp211
I400
(dp212
g4
(dp213
g9
S'/System/Library/Fonts/\xe5\x84\xb7\xe9\xbb\x91 Pro.ttf'
p214
ssssssS'Hiragino Kaku Gothic Pro'
p215
(dp216
g4
(dp217
g4
(dp218
I400
(dp219
g4
(dp220
g9
S'/Library/Fonts/\xe3\x83\x92\xe3\x83\xa9\xe3\x82\xad\xe3\x82\x99\xe3\x83\x8e\xe8\xa7\x92\xe3\x82\xb3\xe3\x82\x99 Pro W3.otf'
p221
sssI700
(dp222
g4
(dp223
g9
S'/Library/Fonts/\xe3\x83\x92\xe3\x83\xa9\xe3\x82\xad\xe3\x82\x99\xe3\x83\x8e\xe8\xa7\x92\xe3\x82\xb3\xe3\x82\x99 Pro W6.otf'
p224
ssssssS'Apple Braille'
p225
(dp226
g4
(dp227
g4
(dp228
I400
(dp229
g4
(dp230
g9
S'/System/Library/Fonts/Apple Braille Pinpoint 8 Dot.ttf'
p231
ssssssS'Cambria Math'
p232
(dp233
g4
(dp234
g4
(dp235
I400
(dp236
g4
(dp237
g9
S'/Library/Fonts/Microsoft/Cambria Math.ttf'
p238
ssssssS'Candara'
p239
(dp240
g20
(dp241
g4
(dp242
I400
(dp243
g4
(dp244
g9
S'/Library/Fonts/Microsoft/Candara Italic.ttf'
p245
sssI700
(dp246
g4
(dp247
g9
S'/Library/Fonts/Microsoft/Candara Bold Italic.ttf'
p248
sssssg4
(dp249
g4
(dp250
I400
(dp251
g4
(dp252
g9
S'/Library/Fonts/Microsoft/Candara.ttf'
p253
sssI700
(dp254
g4
(dp255
g9
S'/Library/Fonts/Microsoft/Candara Bold.ttf'
p256
ssssssS'.Keyboard'
p257
(dp258
g4
(dp259
g4
(dp260
I400
(dp261
g4
(dp262
g9
S'/System/Library/Fonts/Keyboard.ttf'
p263
ssssssS'Arial Narrow'
p264
(dp265
g20
(dp266
g4
(dp267
I400
(dp268
S'condensed'
p269
(dp270
g9
S'/Library/Fonts/Arial Narrow Italic.ttf'
p271
sssI700
(dp272
g269
(dp273
g9
S'/Library/Fonts/Arial Narrow Bold Italic.ttf'
p274
sssssg4
(dp275
g4
(dp276
I400
(dp277
g269
(dp278
g9
S'/Library/Fonts/Arial Narrow.ttf'
p279
sssI700
(dp280
g269
(dp281
g9
S'/Library/Fonts/Arial Narrow Bold.ttf'
p282
ssssssS'Monaco'
p283
(dp284
g4
(dp285
g4
(dp286
I400
(dp287
g4
(dp288
g9
S'/System/Library/Fonts/Monaco.dfont'
p289
ssssssS'cmtt10'
p290
(dp291
g4
(dp292
g4
(dp293
I400
(dp294
g4
(dp295
g9
S'/Users/tjfulle/Local/darwin/viz/CEI/apex22/machines/apple_10.5/python251-x11/lib/python2.5/site-packages/matplotlib/mpl-data/cmtt10.ttf'
p296
ssssssS'Gill Sans'
p297
(dp298
g4
(dp299
g4
(dp300
I400
(dp301
g4
(dp302
g9
S'/Library/Fonts/GillSans.ttc'
p303
ssssssS'MS Reference Sans Serif'
p304
(dp305
g4
(dp306
g4
(dp307
I400
(dp308
g4
(dp309
g9
S'/Library/Fonts/Microsoft/MS Reference Sans Serif.ttf'
p310
ssssssS'Luxi Serif'
p311
(dp312
g57
(dp313
g4
(dp314
I400
(dp315
g4
(dp316
g9
S'/usr/X11R6/lib/X11/fonts/TTF/luxirri.ttf'
p317
sssI700
(dp318
g4
(dp319
g9
S'/usr/X11R6/lib/X11/fonts/TTF/luxirbi.ttf'
p320
sssssg4
(dp321
g4
(dp322
I400
(dp323
g4
(dp324
g9
S'/usr/X11R6/lib/X11/fonts/TTF/luxirr.ttf'
p325
sssI700
(dp326
g4
(dp327
g9
S'/usr/X11R6/lib/X11/fonts/TTF/luxirb.ttf'
p328
ssssssS'Osaka'
p329
(dp330
g4
(dp331
g4
(dp332
I400
(dp333
g4
(dp334
g9
S'/Library/Fonts/OsakaMono.ttf'
p335
ssssssS'Courier New'
p336
(dp337
g20
(dp338
g4
(dp339
I400
(dp340
g4
(dp341
g9
S'/Library/Fonts/Courier New Italic.ttf'
p342
sssI700
(dp343
g4
(dp344
g9
S'/Library/Fonts/Courier New Bold Italic.ttf'
p345
sssssg4
(dp346
g4
(dp347
I400
(dp348
g4
(dp349
g9
S'/Library/Fonts/Courier New.ttf'
p350
sssI700
(dp351
g4
(dp352
g9
S'/Library/Fonts/Courier New Bold.ttf'
p353
ssssssS'Marker Felt'
p354
(dp355
g4
(dp356
g4
(dp357
I400
(dp358
g4
(dp359
g9
S'/Library/Fonts/MarkerFelt.ttc'
p360
ssssssS'Thonburi'
p361
(dp362
g4
(dp363
g4
(dp364
I400
(dp365
g4
(dp366
g9
S'/System/Library/Fonts/Thonburi.ttf'
p367
sssI700
(dp368
g4
(dp369
g9
S'/System/Library/Fonts/ThonburiBold.ttf'
p370
ssssssS'Skia'
p371
(dp372
g4
(dp373
g4
(dp374
I400
(dp375
g4
(dp376
g9
S'/Library/Fonts/Skia.ttf'
p377
ssssssS'Impact'
p378
(dp379
g4
(dp380
g4
(dp381
I400
(dp382
g4
(dp383
g9
S'/Library/Fonts/Impact.ttf'
p384
ssssssS'Wingdings 3'
p385
(dp386
g4
(dp387
g4
(dp388
I400
(dp389
g4
(dp390
g9
S'/Library/Fonts/Microsoft/Wingdings 3.ttf'
p391
ssssssS'Wingdings 2'
p392
(dp393
g4
(dp394
g4
(dp395
I400
(dp396
g4
(dp397
g9
S'/Library/Fonts/Microsoft/Wingdings 2.ttf'
p398
ssssssS'Zapf Dingbats'
p399
(dp400
g4
(dp401
g4
(dp402
I400
(dp403
g4
(dp404
g9
S'/System/Library/Fonts/ZapfDingbats.ttf'
p405
ssssssS'Gulim'
p406
(dp407
g4
(dp408
g4
(dp409
I400
(dp410
g4
(dp411
g9
S'/Library/Fonts/Microsoft/Gulim.ttf'
p412
ssssssS'Arial Black'
p413
(dp414
g4
(dp415
g4
(dp416
I900
(dp417
g4
(dp418
g9
S'/Library/Fonts/Arial Black.ttf'
p419
ssssssS'Hiragino Kaku Gothic StdN'
p420
(dp421
g4
(dp422
g4
(dp423
I700
(dp424
g4
(dp425
g9
S'/Library/Fonts/\xe3\x83\x92\xe3\x83\xa9\xe3\x82\xad\xe3\x82\x99\xe3\x83\x8e\xe8\xa7\x92\xe3\x82\xb3\xe3\x82\x99 StdN W8.otf'
p426
ssssssS'Wingdings'
p427
(dp428
g4
(dp429
g4
(dp430
I400
(dp431
g4
(dp432
g9
S'/Library/Fonts/Microsoft/Wingdings.ttf'
p433
ssssssS'Arial Rounded MT Bold'
p434
(dp435
g4
(dp436
g4
(dp437
I700
(dp438
g4
(dp439
g9
S'/Library/Fonts/Arial Rounded Bold.ttf'
p440
ssssssS'Luxi Sans'
p441
(dp442
g57
(dp443
g4
(dp444
I400
(dp445
g4
(dp446
g9
S'/usr/X11R6/lib/X11/fonts/TTF/luxisri.ttf'
p447
sssI700
(dp448
g4
(dp449
g9
S'/usr/X11R6/lib/X11/fonts/TTF/luxisbi.ttf'
p450
sssssg4
(dp451
g4
(dp452
I400
(dp453
g4
(dp454
g9
S'/usr/X11R6/lib/X11/fonts/TTF/luxisr.ttf'
p455
sssI700
(dp456
g4
(dp457
g9
S'/usr/X11R6/lib/X11/fonts/TTF/luxisb.ttf'
p458
ssssssS'Lucida Sans Unicode'
p459
(dp460
g4
(dp461
g4
(dp462
I400
(dp463
g4
(dp464
g9
S'/Library/Fonts/Microsoft/Lucida Sans Unicode.ttf'
p465
ssssssS'Gill Sans MT'
p466
(dp467
g20
(dp468
g4
(dp469
I400
(dp470
g4
(dp471
g9
S'/Library/Fonts/Microsoft/Gill Sans MT Italic.ttf'
p472
sssI700
(dp473
g4
(dp474
g9
S'/Library/Fonts/Microsoft/Gill Sans MT Bold Italic.ttf'
p475
sssssg4
(dp476
g4
(dp477
I400
(dp478
g4
(dp479
g9
S'/Library/Fonts/Microsoft/Gill Sans MT.ttf'
p480
sssI700
(dp481
g4
(dp482
g9
S'/Library/Fonts/Microsoft/Gill Sans MT Bold.ttf'
p483
ssssssS'monospace'
p484
(dp485
g57
(dp486
g4
(dp487
I400
(dp488
g4
(dp489
g9
S'/Users/tjfulle/Local/darwin/viz/CEI/apex22/machines/apple_10.5/python251-x11/lib/python2.5/site-packages/matplotlib/mpl-data/VeraMoIt.ttf'
p490
sssI700
(dp491
g4
(dp492
g9
S'/Users/tjfulle/Local/darwin/viz/CEI/apex22/machines/apple_10.5/python251-x11/lib/python2.5/site-packages/matplotlib/mpl-data/VeraMoBI.ttf'
p493
sssssg4
(dp494
g4
(dp495
I400
(dp496
g4
(dp497
g9
S'/System/Library/Fonts/Courier.dfont'
p498
sssI700
(dp499
g4
(dp500
g9
S'/Users/tjfulle/Local/darwin/viz/CEI/apex22/machines/apple_10.5/python251-x11/lib/python2.5/site-packages/matplotlib/mpl-data/VeraMoBd.ttf'
p501
ssssssS'Cambria'
p502
(dp503
g20
(dp504
g4
(dp505
I400
(dp506
g4
(dp507
g9
S'/Library/Fonts/Microsoft/Cambria Italic.ttf'
p508
sssI700
(dp509
g4
(dp510
g9
S'/Library/Fonts/Microsoft/Cambria Bold Italic.ttf'
p511
sssssg4
(dp512
g4
(dp513
I400
(dp514
g4
(dp515
g9
S'/Library/Fonts/Microsoft/Cambria.ttf'
p516
sssI700
(dp517
g4
(dp518
g9
S'/Library/Fonts/Microsoft/Cambria Bold.ttf'
p519
ssssssS'MS Reference Specialty'
p520
(dp521
g4
(dp522
g4
(dp523
I400
(dp524
g4
(dp525
g9
S'/Library/Fonts/Microsoft/MS Reference Specialty.ttf'
p526
ssssssS'Cochin'
p527
(dp528
g4
(dp529
g4
(dp530
I400
(dp531
g4
(dp532
g9
S'/Library/Fonts/Cochin.ttc'
p533
ssssssS'Hiragino Mincho Pro'
p534
(dp535
g4
(dp536
g4
(dp537
I400
(dp538
g4
(dp539
g9
S'/Library/Fonts/\xe3\x83\x92\xe3\x83\xa9\xe3\x82\xad\xe3\x82\x99\xe3\x83\x8e\xe6\x98\x8e\xe6\x9c\x9d Pro W3.otf'
p540
sssI700
(dp541
g4
(dp542
g9
S'/Library/Fonts/\xe3\x83\x92\xe3\x83\xa9\xe3\x82\xad\xe3\x82\x99\xe3\x83\x8e\xe6\x98\x8e\xe6\x9c\x9d Pro W6.otf'
p543
ssssssS'Zapfino'
p544
(dp545
g4
(dp546
g4
(dp547
I400
(dp548
g4
(dp549
g9
S'/Library/Fonts/Zapfino.ttf'
p550
ssssssS'Lucida Grande'
p551
(dp552
g4
(dp553
g4
(dp554
I400
(dp555
g4
(dp556
g9
S'/System/Library/Fonts/LucidaGrande.ttc'
p557
ssssssS'Big Caslon'
p558
(dp559
g4
(dp560
g4
(dp561
I500
(dp562
g4
(dp563
g9
S'/Library/Fonts/BigCaslon.ttf'
p564
ssssssS'Bitstream Vera Sans Mono'
p565
(dp566
g57
(dp567
g4
(dp568
I400
(dp569
g4
(dp570
g9
g490
sssI700
(dp571
g4
(dp572
g9
g493
sssssg4
(dp573
g4
(dp574
I400
(dp575
g4
(dp576
g9
S'/Users/tjfulle/Local/darwin/viz/CEI/apex22/machines/apple_10.5/python251-x11/lib/python2.5/site-packages/matplotlib/mpl-data/VeraMono.ttf'
p577
sssI700
(dp578
g4
(dp579
g9
g501
ssssssS'Marlett'
p580
(dp581
g4
(dp582
g4
(dp583
I400
(dp584
g4
(dp585
g9
S'/Library/Fonts/Microsoft/Marlett.ttf'
p586
ssssssS'Times'
p587
(dp588
g4
(dp589
g4
(dp590
I500
(dp591
g4
(dp592
g9
S'/System/Library/Fonts/Times.dfont'
p593
ssssssS'Meiryo'
p594
(dp595
g20
(dp596
g4
(dp597
I400
(dp598
g4
(dp599
g9
S'/Library/Fonts/Microsoft/Meiryo Italic.ttf'
p600
sssI700
(dp601
g4
(dp602
g9
S'/Library/Fonts/Microsoft/Meiryo Bold Italic.ttf'
p603
sssssg4
(dp604
g4
(dp605
I400
(dp606
g4
(dp607
g9
S'/Library/Fonts/Microsoft/Meiryo.ttf'
p608
sssI700
(dp609
g4
(dp610
g9
S'/Library/Fonts/Microsoft/Meiryo Bold.ttf'
p611
ssssssS'Bitstream Vera Serif'
p612
(dp613
g4
(dp614
g4
(dp615
I400
(dp616
g4
(dp617
g9
S'/Users/tjfulle/Local/darwin/viz/CEI/apex22/machines/apple_10.5/python251-x11/lib/python2.5/site-packages/matplotlib/mpl-data/VeraSe.ttf'
p618
sssI700
(dp619
g4
(dp620
g9
S'/Users/tjfulle/Local/darwin/viz/CEI/apex22/machines/apple_10.5/python251-x11/lib/python2.5/site-packages/matplotlib/mpl-data/VeraSeBd.ttf'
p621
ssssssS'Herculanum'
p622
(dp623
g4
(dp624
g4
(dp625
I400
(dp626
g4
(dp627
g9
S'/Library/Fonts/Herculanum.ttf'
p628
ssssssS'PilGi'
p629
(dp630
g4
(dp631
g4
(dp632
I400
(dp633
g4
(dp634
g9
S'/Library/Fonts/Pilgiche.ttf'
p635
ssssssS'cmmi10'
p636
(dp637
g4
(dp638
g4
(dp639
I400
(dp640
g4
(dp641
g9
S'/Users/tjfulle/Local/darwin/viz/CEI/apex22/machines/apple_10.5/python251-x11/lib/python2.5/site-packages/matplotlib/mpl-data/cmmi10.ttf'
p642
ssssssS'Goha-Tibeb Zemen'
p643
(dp644
g4
(dp645
g4
(dp646
I400
(dp647
g4
(dp648
g9
S'/usr/X11R6/lib/X11/fonts/TTF/GohaTibebZemen.ttf'
p649
ssssssS'Franklin Gothic Book'
p650
(dp651
g20
(dp652
g4
(dp653
I400
(dp654
g4
(dp655
g9
S'/Library/Fonts/Microsoft/Franklin Gothic Book Italic.ttf'
p656
sssssg4
(dp657
g4
(dp658
I400
(dp659
g4
(dp660
g9
S'/Library/Fonts/Microsoft/Franklin Gothic Book.ttf'
p661
ssssssS'SimSun'
p662
(dp663
g4
(dp664
g4
(dp665
I400
(dp666
g4
(dp667
g9
S'/Library/Fonts/Microsoft/SimSun.ttf'
p668
ssssssS'Trebuchet MS'
p669
(dp670
g20
(dp671
g4
(dp672
I400
(dp673
g4
(dp674
g9
S'/Library/Fonts/Trebuchet MS Italic.ttf'
p675
sssI700
(dp676
g4
(dp677
g9
S'/Library/Fonts/Trebuchet MS Bold Italic.ttf'
p678
sssssg4
(dp679
g4
(dp680
I400
(dp681
g4
(dp682
g9
S'/Library/Fonts/Trebuchet MS.ttf'
p683
sssI700
(dp684
g4
(dp685
g9
S'/Library/Fonts/Trebuchet MS Bold.ttf'
p686
ssssssS'Bitstream Vera Sans'
p687
(dp688
g57
(dp689
g4
(dp690
I400
(dp691
g4
(dp692
g9
S'/Users/tjfulle/Local/darwin/viz/CEI/apex22/machines/apple_10.5/python251-x11/lib/python2.5/site-packages/matplotlib/mpl-data/VeraIt.ttf'
p693
sssI700
(dp694
g4
(dp695
g9
S'/Users/tjfulle/Local/darwin/viz/CEI/apex22/machines/apple_10.5/python251-x11/lib/python2.5/site-packages/matplotlib/mpl-data/VeraBI.ttf'
p696
sssssg4
(dp697
g4
(dp698
I400
(dp699
g4
(dp700
g9
S'/Users/tjfulle/Local/darwin/viz/CEI/apex22/machines/apple_10.5/python251-x11/lib/python2.5/site-packages/matplotlib/mpl-data/Vera.ttf'
p701
sssI700
(dp702
g4
(dp703
g9
S'/Users/tjfulle/Local/darwin/viz/CEI/apex22/machines/apple_10.5/python251-x11/lib/python2.5/site-packages/matplotlib/mpl-data/VeraBd.ttf'
p704
ssssssS'Hiragino Kaku Gothic Std'
p705
(dp706
g4
(dp707
g4
(dp708
I700
(dp709
g4
(dp710
g9
S'/Library/Fonts/\xe3\x83\x92\xe3\x83\xa9\xe3\x82\xad\xe3\x82\x99\xe3\x83\x8e\xe8\xa7\x92\xe3\x82\xb3\xe3\x82\x99 Std W8.otf'
p711
ssssssS'Bookshelf Symbol 7'
p712
(dp713
g4
(dp714
g4
(dp715
I400
(dp716
g4
(dp717
g9
S'/Library/Fonts/Microsoft/Bookshelf Symbol 7.ttf'
p718
ssssssS'cmr10'
p719
(dp720
g4
(dp721
g4
(dp722
I400
(dp723
g4
(dp724
g9
S'/Users/tjfulle/Local/darwin/viz/CEI/apex22/machines/apple_10.5/python251-x11/lib/python2.5/site-packages/matplotlib/mpl-data/cmr10.ttf'
p725
ssssssS'Hei'
p726
(dp727
g4
(dp728
g4
(dp729
I400
(dp730
g4
(dp731
g9
S'/Library/Fonts/Hei.ttf'
p732
ssssssS'Hiragino Sans GB'
p733
(dp734
g4
(dp735
g4
(dp736
I400
(dp737
g4
(dp738
g9
S'/Library/Fonts/Hiragino Sans GB W3.otf'
p739
sssI700
(dp740
g4
(dp741
g9
S'/Library/Fonts/Hiragino Sans GB W6.otf'
p742
ssssssS'Corbel'
p743
(dp744
g20
(dp745
g4
(dp746
I400
(dp747
g4
(dp748
g9
S'/Library/Fonts/Microsoft/Corbel Italic.ttf'
p749
sssI700
(dp750
g4
(dp751
g9
S'/Library/Fonts/Microsoft/Corbel Bold Italic.ttf'
p752
sssssg4
(dp753
g4
(dp754
I400
(dp755
g4
(dp756
g9
S'/Library/Fonts/Microsoft/Corbel.ttf'
p757
sssI700
(dp758
g4
(dp759
g9
S'/Library/Fonts/Microsoft/Corbel Bold.ttf'
p760
ssssssS'Courier'
p761
(dp762
g4
(dp763
g4
(dp764
I400
(dp765
g4
(dp766
g9
g498
ssssssS'Brush Script MT'
p767
(dp768
g20
(dp769
g4
(dp770
I400
(dp771
g4
(dp772
g9
S'/Library/Fonts/Microsoft/Brush Script.ttf'
p773
ssssssS'Symbol'
p774
(dp775
g4
(dp776
g4
(dp777
I400
(dp778
g4
(dp779
g9
S'/System/Library/Fonts/Symbol.ttf'
p780
ssssssS'Constantia'
p781
(dp782
g20
(dp783
g4
(dp784
I400
(dp785
g4
(dp786
g9
S'/Library/Fonts/Microsoft/Constantia Italic.ttf'
p787
sssI700
(dp788
g4
(dp789
g9
S'/Library/Fonts/Microsoft/Constantia Bold Italic.ttf'
p790
sssssg4
(dp791
g4
(dp792
I400
(dp793
g4
(dp794
g9
S'/Library/Fonts/Microsoft/Constantia.ttf'
p795
sssI700
(dp796
g4
(dp797
g9
S'/Library/Fonts/Microsoft/Constantia Bold.ttf'
p798
ssssssS'Microsoft Sans Serif'
p799
(dp800
g4
(dp801
g4
(dp802
I400
(dp803
g4
(dp804
g9
S'/Library/Fonts/Microsoft Sans Serif.ttf'
p805
ssssssS'Georgia'
p806
(dp807
g20
(dp808
g4
(dp809
I400
(dp810
g4
(dp811
g9
S'/Library/Fonts/Georgia Italic.ttf'
p812
sssI700
(dp813
g4
(dp814
g9
S'/Library/Fonts/Georgia Bold Italic.ttf'
p815
sssssg4
(dp816
g4
(dp817
I400
(dp818
g4
(dp819
g9
S'/Library/Fonts/Georgia.ttf'
p820
sssI700
(dp821
g4
(dp822
g9
S'/Library/Fonts/Georgia Bold.ttf'
p823
ssssssS'American Typewriter'
p824
(dp825
g4
(dp826
g4
(dp827
I400
(dp828
g4
(dp829
g9
S'/Library/Fonts/AmericanTypewriter.ttc'
p830
ssssssS'PMingLiU'
p831
(dp832
g4
(dp833
g4
(dp834
I400
(dp835
g4
(dp836
g9
S'/Library/Fonts/Microsoft/PMingLiU.ttf'
p837
ssssssS'serif'
p838
(dp839
g4
(dp840
g4
(dp841
I400
(dp842
g4
(dp843
g9
g618
sssI500
(dp844
g4
(dp845
g9
g593
sssI700
(dp846
g4
(dp847
g9
g621
ssssssS'STHeiti'
p848
(dp849
g4
(dp850
g4
(dp851
I400
(dp852
g4
(dp853
g9
S'/System/Library/Fonts/\xe5\x8d\x8e\xe6\x96\x87\xe9\xbb\x91\xe4\xbd\x93.ttf'
p854
ssssssS'Hiragino Kaku Gothic ProN'
p855
(dp856
g4
(dp857
g4
(dp858
I400
(dp859
g4
(dp860
g9
S'/System/Library/Fonts/\xe3\x83\x92\xe3\x83\xa9\xe3\x82\xad\xe3\x82\x99\xe3\x83\x8e\xe8\xa7\x92\xe3\x82\xb3\xe3\x82\x99 ProN W3.otf'
p861
sssI700
(dp862
g4
(dp863
g9
S'/System/Library/Fonts/\xe3\x83\x92\xe3\x83\xa9\xe3\x82\xad\xe3\x82\x99\xe3\x83\x8e\xe8\xa7\x92\xe3\x82\xb3\xe3\x82\x99 ProN W6.otf'
p864
ssssssS'Hiragino Maru Gothic Pro'
p865
(dp866
g4
(dp867
g4
(dp868
I400
(dp869
g4
(dp870
g9
S'/Library/Fonts/\xe3\x83\x92\xe3\x83\xa9\xe3\x82\xad\xe3\x82\x99\xe3\x83\x8e\xe4\xb8\xb8\xe3\x82\xb3\xe3\x82\x99 Pro W4.otf'
p871
ssssssS'Hiragino Maru Gothic ProN'
p872
(dp873
g4
(dp874
g4
(dp875
I400
(dp876
g4
(dp877
g9
S'/Library/Fonts/\xe3\x83\x92\xe3\x83\xa9\xe3\x82\xad\xe3\x82\x99\xe3\x83\x8e\xe4\xb8\xb8\xe3\x82\xb3\xe3\x82\x99 ProN W4.otf'
p878
ssssssS'AppleGothic'
p879
(dp880
g4
(dp881
g4
(dp882
I400
(dp883
g4
(dp884
g9
S'/System/Library/Fonts/AppleGothic.ttf'
p885
ssssssS'Apple Chancery'
p886
(dp887
g4
(dp888
g4
(dp889
I400
(dp890
g4
(dp891
g9
S'/Library/Fonts/Apple Chancery.ttf'
p892
ssssssS'Franklin Gothic Medium'
p893
(dp894
g20
(dp895
g4
(dp896
I500
(dp897
g4
(dp898
g9
S'/Library/Fonts/Microsoft/Franklin Gothic Medium Italic.ttf'
p899
sssssg4
(dp900
g4
(dp901
I500
(dp902
g4
(dp903
g9
S'/Library/Fonts/Microsoft/Franklin Gothic Medium.ttf'
p904
ssssssS'Tw Cen MT'
p905
(dp906
g20
(dp907
g4
(dp908
I400
(dp909
g4
(dp910
g9
S'/Library/Fonts/Microsoft/Tw Cen MT Italic.ttf'
p911
sssI700
(dp912
g4
(dp913
g9
S'/Library/Fonts/Microsoft/Tw Cen MT Bold Italic.ttf'
p914
sssssg4
(dp915
g4
(dp916
I400
(dp917
g4
(dp918
g9
S'/Library/Fonts/Microsoft/Tw Cen MT.ttf'
p919
sssI700
(dp920
g4
(dp921
g9
S'/Library/Fonts/Microsoft/Tw Cen MT Bold.ttf'
p922
ssssssS'Tahoma'
p923
(dp924
g4
(dp925
g4
(dp926
I400
(dp927
g4
(dp928
g9
S'/Library/Fonts/Tahoma.ttf'
p929
sssI700
(dp930
g4
(dp931
g9
S'/Library/Fonts/Tahoma Bold.ttf'
p932
ssssssS'Palatino Linotype'
p933
(dp934
g20
(dp935
g4
(dp936
I400
(dp937
g4
(dp938
g9
S'/Library/Fonts/Microsoft/Palatino Linotype Italic.ttf'
p939
sssI700
(dp940
g4
(dp941
g9
S'/Library/Fonts/Microsoft/Palatino Linotype Bold Italic.ttf'
p942
sssssg4
(dp943
g4
(dp944
I400
(dp945
g4
(dp946
g9
S'/Library/Fonts/Microsoft/Palatino Linotype.ttf'
p947
sssI700
(dp948
g4
(dp949
g9
S'/Library/Fonts/Microsoft/Palatino Linotype Bold.ttf'
p950
ssssssS'Baskerville'
p951
(dp952
g4
(dp953
g4
(dp954
I400
(dp955
g4
(dp956
g9
S'/Library/Fonts/Baskerville.ttc'
p957
ssssssS'Apple LiSung'
p958
(dp959
g4
(dp960
g4
(dp961
I200
(dp962
g4
(dp963
g9
S'/Library/Fonts/Apple LiSung Light.ttf'
p964
ssssssS'Chalkboard'
p965
(dp966
g4
(dp967
g4
(dp968
I400
(dp969
g4
(dp970
g9
S'/Library/Fonts/Chalkboard.ttc'
p971
ssssssS'.Aqua Kana'
p972
(dp973
g4
(dp974
g4
(dp975
I400
(dp976
g4
(dp977
g9
S'/System/Library/Fonts/AquaKana.ttc'
p978
ssssssS'Lucida Console'
p979
(dp980
g4
(dp981
g4
(dp982
I400
(dp983
g4
(dp984
g9
S'/Library/Fonts/Microsoft/Lucida Console.ttf'
p985
ssssssS'Didot'
p986
(dp987
g4
(dp988
g4
(dp989
I400
(dp990
g4
(dp991
g9
S'/Library/Fonts/Didot.ttc'
p992
ssssssS'Geneva'
p993
(dp994
g4
(dp995
g4
(dp996
I400
(dp997
g4
(dp998
g9
S'/System/Library/Fonts/Geneva.dfont'
p999
ssssssS'Andale Mono'
p1000
(dp1001
g4
(dp1002
g4
(dp1003
I400
(dp1004
g4
(dp1005
g9
S'/Library/Fonts/Andale Mono.ttf'
p1006
ssssssS'Kai'
p1007
(dp1008
g4
(dp1009
g4
(dp1010
I400
(dp1011
g4
(dp1012
g9
S'/Library/Fonts/Kai.ttf'
p1013
ssssssS'Consolas'
p1014
(dp1015
g20
(dp1016
g4
(dp1017
I400
(dp1018
g4
(dp1019
g9
S'/Library/Fonts/Microsoft/Consolas Italic.ttf'
p1020
sssI700
(dp1021
g4
(dp1022
g9
S'/Library/Fonts/Microsoft/Consolas Bold Italic.ttf'
p1023
sssssg4
(dp1024
g4
(dp1025
I400
(dp1026
g4
(dp1027
g9
S'/Library/Fonts/Microsoft/Consolas.ttf'
p1028
sssI700
(dp1029
g4
(dp1030
g9
S'/Library/Fonts/Microsoft/Consolas Bold.ttf'
p1031
ssssssS'Times New Roman'
p1032
(dp1033
g20
(dp1034
g4
(dp1035
I700
(dp1036
g4
(dp1037
g9
S'/Library/Fonts/Microsoft/Times New Roman Bold Italic.ttf'
p1038
sssI500
(dp1039
g4
(dp1040
g9
S'/Library/Fonts/Microsoft/Times New Roman Italic.ttf'
p1041
sssssg4
(dp1042
g4
(dp1043
I500
(dp1044
g4
(dp1045
g9
S'/Library/Fonts/Microsoft/Times New Roman.ttf'
p1046
sssI700
(dp1047
g4
(dp1048
g9
S'/Library/Fonts/Microsoft/Times New Roman Bold.ttf'
p1049
ssssssS'Papyrus'
p1050
(dp1051
g4
(dp1052
g4
(dp1053
I400
(dp1054
g4
(dp1055
g9
S'/Library/Fonts/Papyrus.ttc'
p1056
ssssssS'Menlo'
p1057
(dp1058
g4
(dp1059
g4
(dp1060
I400
(dp1061
g4
(dp1062
g9
S'/System/Library/Fonts/Menlo.ttc'
p1063
ssssssS'Futura'
p1064
(dp1065
g4
(dp1066
g4
(dp1067
I500
(dp1068
g4
(dp1069
g9
S'/Library/Fonts/Futura.ttc'
p1070
ssssssS'LastResort'
p1071
(dp1072
g4
(dp1073
g4
(dp1074
I400
(dp1075
g4
(dp1076
g9
S'/System/Library/Fonts/LastResort.ttf'
p1077
ssssssS'cmex10'
p1078
(dp1079
g4
(dp1080
g4
(dp1081
I400
(dp1082
g4
(dp1083
g9
S'/Users/tjfulle/Local/darwin/viz/CEI/apex22/machines/apple_10.5/python251-x11/lib/python2.5/site-packages/matplotlib/mpl-data/cmex10.ttf'
p1084
ssssssS'Gabriola'
p1085
(dp1086
g4
(dp1087
g4
(dp1088
I400
(dp1089
g4
(dp1090
g9
S'/Library/Fonts/Microsoft/Gabriola.ttf'
p1091
ssssssS'Heiti TC'
p1092
(dp1093
g4
(dp1094
g4
(dp1095
I200
(dp1096
g4
(dp1097
g9
S'/System/Library/Fonts/STHeiti Light.ttc'
p1098
sssI500
(dp1099
g4
(dp1100
g9
S'/Library/Fonts/STHeiti Medium.ttc'
p1101
ssssssS'Apple Symbols'
p1102
(dp1103
g4
(dp1104
g4
(dp1105
I400
(dp1106
g4
(dp1107
g9
S'/System/Library/Fonts/Apple Symbols.ttf'
p1108
ssssssS'Copperplate'
p1109
(dp1110
g4
(dp1111
g4
(dp1112
I400
(dp1113
g4
(dp1114
g9
S'/Library/Fonts/Copperplate.ttc'
p1115
ssssssS'Apple LiGothic'
p1116
(dp1117
g4
(dp1118
g4
(dp1119
I500
(dp1120
g4
(dp1121
g9
S'/Library/Fonts/Apple LiGothic Medium.ttf'
p1122
ssssssS'Geeza Pro'
p1123
(dp1124
g4
(dp1125
g4
(dp1126
I400
(dp1127
g4
(dp1128
g9
S'/System/Library/Fonts/Geeza Pro.ttf'
p1129
sssI700
(dp1130
g4
(dp1131
g9
S'/System/Library/Fonts/Geeza Pro Bold.ttf'
p1132
ssssssS'sans-serif'
p1133
(dp1134
g57
(dp1135
g4
(dp1136
I400
(dp1137
g4
(dp1138
g9
g693
sssI200
(dp1139
g4
(dp1140
g9
g62
sssI700
(dp1141
g4
(dp1142
g9
g696
sssssg4
(dp1143
g4
(dp1144
I400
(dp1145
g4
(dp1146
g9
g70
sssI200
(dp1147
g4
(dp1148
g9
g67
sssI700
(dp1149
g4
(dp1150
g9
g704
ssssssS'Comic Sans MS'
p1151
(dp1152
g4
(dp1153
g4
(dp1154
I400
(dp1155
g4
(dp1156
g9
S'/Library/Fonts/Comic Sans MS.ttf'
p1157
sssI700
(dp1158
g4
(dp1159
g9
S'/Library/Fonts/Comic Sans MS Bold.ttf'
p1160
ssssssS'PCMyungjo'
p1161
(dp1162
g4
(dp1163
g4
(dp1164
I400
(dp1165
g4
(dp1166
g9
S'/Library/Fonts/PCmyoungjo.ttf'
p1167
ssssss.